LX51 LINKER/LOCATER V4.66.87.0                                                          06/22/2026  16:51:37  PAGE 1


LX51 LINKER/LOCATER V4.66.87.0, INVOKED BY:
E:\05KEILC51\C51\BIN\LX51.EXE .\Output\main.obj, .\Output\AddFunction.obj, .\Output\Interrupt.obj, .\Output\MotorControl
>> .obj, .\Output\MotorControlFunction.obj, .\Output\MotorProtect.obj, .\Output\SLEEP.obj, .\Output\HALL_V0.obj, .\Outpu
>> t\HallProcess.obj, .\Output\SeatFun.obj, .\Output\AntiPinch.obj, .\Output\ADC.obj, .\Output\AMP.obj, .\Output\CMP.obj
>> , .\Output\CRC.obj, .\Output\DMA.obj, .\Output\DRIVER.obj, .\Output\GPIO.obj, .\Output\I2C.obj, .\Output\PIInit.obj, 
>> .\Output\SPI.obj, .\Output\TIMER.obj, .\Output\UART.obj, .\Output\TSD.obj, .\Output\SMDU.obj, .\Output\Lin.obj, .\Out
>> put\FU68xx_6_Flash.obj, .\Output\STARTUP_FU6816.obj, .\Output\OnChipFlash.obj, .\Output\CAN.obj, .\Output\CANIF.obj T
>> O .\Output\Fortior_FOC_FU68x6 PRINT (.\Listings\Fortior_FOC_FU68x6.map) REMOVEUNUSED


CPU MODE:     8051 MODE
MEMORY MODEL: LARGE WITH FLOATING POINT ARITHMETIC


INPUT MODULES INCLUDED:
  .\Output\main.obj (MAIN)
         COMMENT TYPE 0: C51 V9.57.0.0
  .\Output\AddFunction.obj (ADDFUNCTION)
         COMMENT TYPE 0: C51 V9.57.0.0
  .\Output\Interrupt.obj (INTERRUPT)
         COMMENT TYPE 0: C51 V9.57.0.0
  .\Output\MotorControl.obj (MOTORCONTROL)
         COMMENT TYPE 0: C51 V9.57.0.0
  .\Output\MotorControlFunction.obj (MOTORCONTROLFUNCTION)
         COMMENT TYPE 0: C51 V9.57.0.0
  .\Output\MotorProtect.obj (MOTORPROTECT)
         COMMENT TYPE 0: C51 V9.57.0.0
  .\Output\SLEEP.obj (SLEEP)
         COMMENT TYPE 0: C51 V9.57.0.0
  .\Output\HALL_V0.obj (HALL_V0)
         COMMENT TYPE 0: C51 V9.57.0.0
  .\Output\HallProcess.obj (HALLPROCESS)
         COMMENT TYPE 0: C51 V9.57.0.0
  .\Output\SeatFun.obj (SEATFUN)
         COMMENT TYPE 0: C51 V9.57.0.0
  .\Output\AntiPinch.obj (ANTIPINCH)
         COMMENT TYPE 0: C51 V9.57.0.0
  .\Output\ADC.obj (ADC)
         COMMENT TYPE 0: C51 V9.57.0.0
  .\Output\AMP.obj (AMP)
         COMMENT TYPE 0: C51 V9.57.0.0
  .\Output\CMP.obj (CMP)
         COMMENT TYPE 0: C51 V9.57.0.0
  .\Output\CRC.obj (CRC)
         COMMENT TYPE 0: C51 V9.57.0.0
  .\Output\DMA.obj (DMA)
         COMMENT TYPE 0: C51 V9.57.0.0
  .\Output\DRIVER.obj (DRIVER)
         COMMENT TYPE 0: C51 V9.57.0.0
  .\Output\GPIO.obj (GPIO)
         COMMENT TYPE 0: C51 V9.57.0.0
  .\Output\I2C.obj (I2C)
         COMMENT TYPE 0: C51 V9.57.0.0
  .\Output\PIInit.obj (PIINIT)
         COMMENT TYPE 0: C51 V9.57.0.0
  .\Output\SPI.obj (SPI)
         COMMENT TYPE 0: C51 V9.57.0.0
  .\Output\TIMER.obj (TIMER)
         COMMENT TYPE 0: C51 V9.57.0.0
  .\Output\UART.obj (UART)
         COMMENT TYPE 0: C51 V9.57.0.0
  .\Output\TSD.obj (TSD)
         COMMENT TYPE 0: C51 V9.57.0.0
  .\Output\SMDU.obj (SMDU)
         COMMENT TYPE 0: C51 V9.57.0.0
  .\Output\Lin.obj (LIN)
LX51 LINKER/LOCATER V4.66.87.0                                                        06/22/2026  16:51:37  PAGE 2


         COMMENT TYPE 0: C51 V9.57.0.0
  .\Output\FU68xx_6_Flash.obj (FU68XX_6_FLASH)
         COMMENT TYPE 0: C51 V9.57.0.0
  .\Output\STARTUP_FU6816.obj (?C_STARTUP)
         COMMENT TYPE 1: A51 / ASM51 Assembler
  .\Output\OnChipFlash.obj (ONCHIPFLASH)
         COMMENT TYPE 0: C51 V9.57.0.0
  .\Output\CAN.obj (CAN)
         COMMENT TYPE 0: C51 V9.57.0.0
  .\Output\CANIF.obj (CANIF)
         COMMENT TYPE 0: C51 V9.57.0.0
  E:\05KEILC51\C51\LIB\C51FPL.LIB (?C?FPADD)
         COMMENT TYPE 1: A51 / ASM51 Assembler
  E:\05KEILC51\C51\LIB\C51FPL.LIB (?C?FPMUL)
         COMMENT TYPE 1: A51 / ASM51 Assembler
  E:\05KEILC51\C51\LIB\C51FPL.LIB (?C?FPDIV)
         COMMENT TYPE 1: A51 / ASM51 Assembler
  E:\05KEILC51\C51\LIB\C51FPL.LIB (?C?FPCMP)
         COMMENT TYPE 1: A51 / ASM51 Assembler
  E:\05KEILC51\C51\LIB\C51FPL.LIB (?C?FPNEG)
         COMMENT TYPE 1: A51 / ASM51 Assembler
  E:\05KEILC51\C51\LIB\C51FPL.LIB (?C?FCAST)
         COMMENT TYPE 1: A51 / ASM51 Assembler
  E:\05KEILC51\C51\LIB\C51FPL.LIB (?C?CASTF)
         COMMENT TYPE 1: A51 / ASM51 Assembler
  E:\05KEILC51\C51\LIB\C51FPL.LIB (?C?FPGETOPN)
         COMMENT TYPE 1: A51 / ASM51 Assembler
  E:\05KEILC51\C51\LIB\C51L.LIB (?C_INIT)
         COMMENT TYPE 1: A51 / ASM51 Assembler
  E:\05KEILC51\C51\LIB\C51L.LIB (?C?COPY)
         COMMENT TYPE 1: A51 / ASM51 Assembler
  E:\05KEILC51\C51\LIB\C51L.LIB (?C?CLDPTR)
         COMMENT TYPE 1: A51 / ASM51 Assembler
  E:\05KEILC51\C51\LIB\C51L.LIB (?C?CLDOPTR)
         COMMENT TYPE 1: A51 / ASM51 Assembler
  E:\05KEILC51\C51\LIB\C51L.LIB (?C?CSTOPTR)
         COMMENT TYPE 1: A51 / ASM51 Assembler
  E:\05KEILC51\C51\LIB\C51L.LIB (?C?UIDIV)
         COMMENT TYPE 1: A51 / ASM51 Assembler
  E:\05KEILC51\C51\LIB\C51L.LIB (?C?IILDX)
         COMMENT TYPE 1: A51 / ASM51 Assembler
  E:\05KEILC51\C51\LIB\C51L.LIB (?C?ILDOPTR)
         COMMENT TYPE 1: A51 / ASM51 Assembler
  E:\05KEILC51\C51\LIB\C51L.LIB (?C?ISTOPTR)
         COMMENT TYPE 1: A51 / ASM51 Assembler
  E:\05KEILC51\C51\LIB\C51L.LIB (?C?LADD)
         COMMENT TYPE 1: A51 / ASM51 Assembler
  E:\05KEILC51\C51\LIB\C51L.LIB (?C?LSUB)
         COMMENT TYPE 1: A51 / ASM51 Assembler
  E:\05KEILC51\C51\LIB\C51L.LIB (?C?LOR)
         COMMENT TYPE 1: A51 / ASM51 Assembler
  E:\05KEILC51\C51\LIB\C51L.LIB (?C?LNEG)
         COMMENT TYPE 1: A51 / ASM51 Assembler
  E:\05KEILC51\C51\LIB\C51L.LIB (?C?SLCMP)
         COMMENT TYPE 1: A51 / ASM51 Assembler
  E:\05KEILC51\C51\LIB\C51L.LIB (?C?ULCMP)
         COMMENT TYPE 1: A51 / ASM51 Assembler
  E:\05KEILC51\C51\LIB\C51L.LIB (?C?ULSHR)
         COMMENT TYPE 1: A51 / ASM51 Assembler
  E:\05KEILC51\C51\LIB\C51L.LIB (?C?SLSHR)
         COMMENT TYPE 1: A51 / ASM51 Assembler
  E:\05KEILC51\C51\LIB\C51L.LIB (?C?LSHL)
         COMMENT TYPE 1: A51 / ASM51 Assembler
  E:\05KEILC51\C51\LIB\C51L.LIB (?C?LLDPTR)
         COMMENT TYPE 1: A51 / ASM51 Assembler
LX51 LINKER/LOCATER V4.66.87.0                                                        06/22/2026  16:51:37  PAGE 3


  E:\05KEILC51\C51\LIB\C51L.LIB (?C?LLDOPTR)
         COMMENT TYPE 1: A51 / ASM51 Assembler
  E:\05KEILC51\C51\LIB\C51L.LIB (?C?LSTOPTR)
         COMMENT TYPE 1: A51 / ASM51 Assembler
  E:\05KEILC51\C51\LIB\C51L.LIB (?C?LLDXDATA)
         COMMENT TYPE 1: A51 / ASM51 Assembler
  E:\05KEILC51\C51\LIB\C51L.LIB (?C?LLDXDATA0)
         COMMENT TYPE 1: A51 / ASM51 Assembler
  E:\05KEILC51\C51\LIB\C51L.LIB (?C?LLDOPTR0)
         COMMENT TYPE 1: A51 / ASM51 Assembler
  E:\05KEILC51\C51\LIB\C51L.LIB (?C?LSTXDATA)
         COMMENT TYPE 1: A51 / ASM51 Assembler
  E:\05KEILC51\C51\LIB\C51L.LIB (?C?LSTKXDATA)
         COMMENT TYPE 1: A51 / ASM51 Assembler
  E:\05KEILC51\C51\LIB\C51L.LIB (?C?PLDXDATA)
         COMMENT TYPE 1: A51 / ASM51 Assembler
  E:\05KEILC51\C51\LIB\C51L.LIB (?C?PSTXDATA)
         COMMENT TYPE 1: A51 / ASM51 Assembler
  E:\05KEILC51\C51\LIB\C51L.LIB (?C?CCASE)
         COMMENT TYPE 1: A51 / ASM51 Assembler
  E:\05KEILC51\C51\LIB\C51L.LIB (?C?LCASE)
         COMMENT TYPE 1: A51 / ASM51 Assembler
  E:\05KEILC51\C51\LIB\C51L.LIB (ABS)
         COMMENT TYPE 1: A51 / ASM51 Assembler
  E:\05KEILC51\C51\LIB\C51L.LIB (?C?MEMSET)
         COMMENT TYPE 1: A51 / ASM51 Assembler
  E:\05KEILC51\C51\LIB\C51L.LIB (?C?LLDIDATA)
         COMMENT TYPE 1: A51 / ASM51 Assembler
  E:\05KEILC51\C51\LIB\C51L.LIB (?C?LLDPDATA)
         COMMENT TYPE 1: A51 / ASM51 Assembler
  E:\05KEILC51\C51\LIB\C51L.LIB (?C?LLDCODE)
         COMMENT TYPE 1: A51 / ASM51 Assembler
  E:\05KEILC51\C51\LIB\C51L.LIB (?C?LLDIDATA0)
         COMMENT TYPE 1: A51 / ASM51 Assembler
  E:\05KEILC51\C51\LIB\C51L.LIB (?C?LLDPDATA0)
         COMMENT TYPE 1: A51 / ASM51 Assembler
  E:\05KEILC51\C51\LIB\C51L.LIB (?C?LLDCODE0)
         COMMENT TYPE 1: A51 / ASM51 Assembler
  E:\05KEILC51\C51\LIB\C51L.LIB (?C?LSTIDATA)
         COMMENT TYPE 1: A51 / ASM51 Assembler
  E:\05KEILC51\C51\LIB\C51L.LIB (?C?LSTPDATA)
         COMMENT TYPE 1: A51 / ASM51 Assembler


ACTIVE MEMORY CLASSES OF MODULE:  .\Output\Fortior_FOC_FU68x6 (MAIN)

BASE        START       END         USED      MEMORY CLASS
==========================================================
C:000000H   C:000000H   C:00FFFFH   002D7CH   CODE
X:000000H   X:000000H   X:00FFFFH   0003E5H   XDATA
I:000000H   I:000000H   I:00007FH   000078H   DATA
I:000020H.0 I:000020H.0 I:00002FH.7 000000H.2 BIT
I:000000H   I:000000H   I:0000FFH   00000AH   IDATA
C:000000H   C:000000H   C:00FFFFH   00001CH   CONST


MEMORY MAP OF MODULE:  .\Output\Fortior_FOC_FU68x6 (MAIN)


START     STOP      LENGTH    ALIGN  RELOC    MEMORY CLASS   SEGMENT NAME
=========================================================================

* * * * * * * * * * *   D A T A   M E M O R Y   * * * * * * * * * * * * *
000000H   000007H   000008H   ---    AT..     DATA           "REG BANK 0"
000008H   000015H   00000EH   BYTE   UNIT     DATA           _DATA_GROUP_
LX51 LINKER/LOCATER V4.66.87.0                                                        06/22/2026  16:51:37  PAGE 4


000016H   000019H   000004H   BYTE   UNIT     DATA           ?DT?MAIN
00001AH   00001AH   000001H   BYTE   UNIT     DATA           ?DT?MOTORCONTROL
00001BH   00001BH   000001H   BYTE   UNIT     DATA           ?DT?MOTORPROTECT
00001CH   00001FH   000004H   BYTE   UNIT     IDATA          ?ID?HALL_V0
000020H.0 000020H.0 000000H.1 BIT    UNIT     BIT            ?BI?ADDFUNCTION
000020H.1 000020H.1 000000H.1 BIT    UNIT     BIT            _BIT_GROUP_
000020H.2 000020H   000000H.6 ---    ---      **GAP**
000021H   00007CH   00005CH   BYTE   UNIT     DATA           ?DT?HALL_V0
00007DH   000081H   000005H   BYTE   UNIT     IDATA          ?ID?MOTORPROTECT
000082H   000082H   000001H   BYTE   UNIT     IDATA          ?STACK

* * * * * * * * * * *   C O D E   M E M O R Y   * * * * * * * * * * * * *
000000H   000002H   000003H   ---    OFFS..   CODE           ?CO??C_STARTUP?0
000003H   000005H   000003H   BYTE   OFFS..   CODE           ?INTERRUPT?00003
000006H   000008H   000003H   BYTE   UNIT     CODE           ?PR?FAULT_DETECTION?MOTORPROTECT
000009H   00000AH   000002H   ---    ---      **GAP**
00000BH   00000DH   000003H   BYTE   OFFS..   CODE           ?INTERRUPT?0000B
00000EH   00001AH   00000DH   BYTE   UNIT     CODE           ?PR?_HALLTHETAINIT?HALL_V0
00001BH   00001DH   000003H   BYTE   OFFS..   CODE           ?INTERRUPT?0001B
00001EH   000022H   000005H   ---    ---      **GAP**
000023H   000025H   000003H   BYTE   OFFS..   CODE           ?INTERRUPT?00023
000026H   00002AH   000005H   ---    ---      **GAP**
00002BH   00002DH   000003H   BYTE   OFFS..   CODE           ?INTERRUPT?0002B
00002EH   000042H   000015H   BYTE   UNIT     CODE           ?PR?MOTOR_READY?MOTORCONTROLFUNCTION
000043H   000045H   000003H   BYTE   OFFS..   CODE           ?INTERRUPT?00043
000046H   00004AH   000005H   ---    ---      **GAP**
00004BH   00004DH   000003H   BYTE   OFFS..   CODE           ?INTERRUPT?0004B
00004EH   000052H   000005H   ---    ---      **GAP**
000053H   000055H   000003H   BYTE   OFFS..   CODE           ?INTERRUPT?00053
000056H   000061H   00000CH   BYTE   UNIT     CODE           ?PR?_ABS?ABS
000062H   000062H   000001H   ---    ---      **GAP**
000063H   000065H   000003H   BYTE   OFFS..   CODE           ?INTERRUPT?00063
000066H   000912H   0008ADH   BYTE   UNIT     CODE           ?C?LIB_CODE
000913H   000B63H   000251H   BYTE   UNIT     CODE           ?PR?CAN_VIDREADFRAME?CAN
000B64H   000D10H   0001ADH   BYTE   UNIT     CODE           ?PR?SPEED_RESPONSE?ADDFUNCTION
000D11H   000E89H   000179H   BYTE   UNIT     CODE           ?PR?TICKCYCLE_1MS?ADDFUNCTION
000E8AH   000FF2H   000169H   BYTE   UNIT     CODE           ?C_INITSEG
000FF3H   00112FH   00013DH   BYTE   UNIT     CODE           ?PR?FAULT_RECOVERY?MOTORPROTECT
001130H   001250H   000121H   BYTE   UNIT     CODE           ?PR?MC_CONTROL?MOTORCONTROL
001251H   001371H   000121H   BYTE   UNIT     CODE           ?PR?_HALLTIMERUPDATE?HALL_V0
001372H   00148DH   00011CH   BYTE   UNIT     CODE           ?PR?_PID_OUTPUT?ADDFUNCTION
00148EH   0015A4H   000117H   BYTE   UNIT     CODE           ?PR?HALLTRIGPROCESS?HALLPROCESS
0015A5H   0016B6H   000112H   BYTE   UNIT     CODE           ?PR?_HALLUPDATEPROCESS?HALL_V0
0016B7H   0017BCH   000106H   BYTE   UNIT     CODE           ?PR?CAN_VIDINIT?CAN
0017BDH   0018ACH   0000F0H   BYTE   UNIT     CODE           ?PR?MOTOR_STOP?MOTORCONTROLFUNCTION
0018ADH   001995H   0000E9H   BYTE   UNIT     CODE           ?PR?FOC_INIT?MOTORCONTROLFUNCTION
001996H   001A69H   0000D4H   BYTE   UNIT     CODE           ?PR?_CAN_VIDSENDMSG?CAN
001A6AH   001B39H   0000D0H   BYTE   UNIT     CODE           ?PR?MOTOR_CHARGE?MOTORCONTROLFUNCTION
001B3AH   001C01H   0000C8H   BYTE   UNIT     CODE           ?PR?ADDFUNCTION
001C02H   001CAAH   0000A9H   BYTE   UNIT     CODE           ?PR?UPDATEHALLFRANDLOSSSTATUS?HALL_V0
001CABH   001D45H   00009BH   BYTE   UNIT     CODE           ?PR?MAIN?MAIN
001D46H   001DDFH   00009AH   BYTE   UNIT     CODE           ?PR?_HALLCALCULATION?HALL_V0
001DE0H   001E79H   00009AH   BYTE   UNIT     CODE           ?C_C51STARTUP
001E7AH   001F12H   000099H   BYTE   UNIT     CODE           ?PR?_MDUCAL?SMDU
001F13H   001FA6H   000094H   BYTE   UNIT     CODE           ?PR?VARIABLESPREINIT?MOTORCONTROLFUNCTION
001FA7H   002039H   000093H   BYTE   UNIT     CODE           ?PR?CAN
00203AH   0020CBH   000092H   BYTE   UNIT     CODE           ?PR?TIM1_HALL_INIT?TIMER
0020CCH   002150H   000085H   BYTE   UNIT     CODE           ?PR?CANIF_VIDCOMLOSTDIAG?CANIF
002151H   0021D4H   000084H   BYTE   UNIT     CODE           ?PR?GETCURRENTOFFSET?MOTORCONTROLFUNCTION
0021D5H   002255H   000081H   BYTE   UNIT     CODE           ?PR?DRV_ISR?INTERRUPT
002256H   0022D4H   00007FH   BYTE   UNIT     CODE           ?PR?CAN_INT?INTERRUPT
0022D5H   00234FH   00007BH   BYTE   UNIT     CODE           ?PR?TIM1_INT?INTERRUPT
002350H   0023CAH   00007BH   BYTE   UNIT     CODE           ?PR?CAN_VIDSTATEMACHINE?CAN
0023CBH   002440H   000076H   BYTE   UNIT     CODE           ?PR?THETACALCULATION?HALL_V0
002441H   0024B5H   000075H   BYTE   UNIT     CODE           ?PR?MOTORCONTROLFUNCTION
LX51 LINKER/LOCATER V4.66.87.0                                                        06/22/2026  16:51:37  PAGE 5


0024B6H   002529H   000074H   BYTE   UNIT     CODE           ?PR?DRIVER_INIT?DRIVER
00252AH   002598H   00006FH   BYTE   UNIT     CODE           ?PR?SOFTWAREINIT?MAIN
002599H   002607H   00006FH   BYTE   UNIT     CODE           ?PR?TIM3_INT?INTERRUPT
002608H   002670H   000069H   BYTE   UNIT     CODE           ?PR?_GETHALLSTATUS?HALL_V0
002671H   0026D2H   000062H   BYTE   UNIT     CODE           ?PR?CANIF_VIDTRANSPROCESS?CANIF
0026D3H   00272BH   000059H   BYTE   UNIT     CODE           ?PR?MOTORPROTECT
00272CH   00277FH   000054H   BYTE   UNIT     CODE           ?PR?_CANIF_VIDRECEIVEPROCESS?CANIF
002780H   0027C7H   000048H   BYTE   UNIT     CODE           ?PR?MOTOR_STATIC_OPEN?MOTORCONTROLFUNCTION
0027C8H   00280FH   000048H   BYTE   UNIT     CODE           ?PR?CANIF_VIDDATAINIT?CANIF
002810H   002852H   000043H   BYTE   UNIT     CODE           ?PR?UPDATEHALLMODE?HALL_V0
002853H   00288EH   00003CH   BYTE   UNIT     CODE           ?PR?_HALLINIT?HALL_V0
00288FH   0028CAH   00003CH   BYTE   UNIT     CODE           ?PR?ADC_INIT?ADC
0028CBH   002904H   00003AH   BYTE   UNIT     CODE           ?PR?MOTORCONTROLINIT?MOTORCONTROLFUNCTION
002905H   00293EH   00003AH   BYTE   UNIT     CODE           ?PR?HALL_V0
00293FH   002978H   00003AH   BYTE   UNIT     CODE           ?PR?HALLTIMERPROCESS?HALLPROCESS
002979H   0029ADH   000035H   BYTE   UNIT     CODE           ?PR?HARDWAREINIT?MAIN
0029AEH   0029E1H   000034H   BYTE   UNIT     CODE           ?PR?CMP3_INIT?CMP
0029E2H   002A13H   000032H   BYTE   UNIT     CODE           ?PR?SYSTICK_INT?INTERRUPT
002A14H   002A43H   000030H   BYTE   UNIT     CODE           ?PR?_LPFFUNCTION?SMDU
002A44H   002A70H   00002DH   BYTE   UNIT     CODE           ?PR?_MOTOR_POSITION_SET?MAIN
002A71H   002A9DH   00002DH   BYTE   UNIT     CODE           ?PR?_HALLUPDATEDETECT?HALL_V0
002A9EH   002ACAH   00002DH   BYTE   UNIT     CODE           ?PR?HALLPROCESS
002ACBH   002AF7H   00002DH   BYTE   UNIT     CODE           ?PR?AMP_INIT?AMP
002AF8H   002B21H   00002AH   BYTE   UNIT     CODE           ?PR?PI_INIT?PIINIT
002B22H   002B4AH   000029H   BYTE   UNIT     CODE           ?PR?VREFCONFIGINIT?MAIN
002B4BH   002B73H   000029H   BYTE   UNIT     CODE           ?PR?MOTOR_CTRL_MAIN?MAIN
002B74H   002B9BH   000028H   BYTE   UNIT     CODE           ?PR?LVW_TSD_INT?INTERRUPT
002B9CH   002BBCH   000021H   BYTE   UNIT     CODE           ?PR?CANIF
002BBDH   002BD9H   00001DH   BYTE   UNIT     CODE           ?PR?TIM2_INT?INTERRUPT
002BDAH   002BF3H   00001AH   BYTE   UNIT     CODE           ?PR?SMDU
002BF4H   002C0CH   000019H   BYTE   UNIT     CODE           ?PR?GPIO_INIT?GPIO
002C0DH   002C24H   000018H   BYTE   UNIT     CODE           ?PR?MOTOR_INIT?MOTORCONTROLFUNCTION
002C25H   002C3CH   000018H   BYTE   UNIT     CODE           ?PR?HALLOVERFLOWCLEAR?HALL_V0
002C3DH   002C52H   000016H   BYTE   UNIT     CODE           ?PR?CMP3_INT?INTERRUPT
002C53H   002C65H   000013H   BYTE   UNIT     CODE           ?PR?MAIN
002C66H   002C75H   000010H   BYTE   UNIT     CODE           ?PR?CMP3_INTERRUPT_INIT?CMP
002C76H   002C7FH   00000AH   BYTE   UNIT     CODE           ?PR?SECTORTHETACALCULATION?HALL_V0
002C80H   002C86H   000007H   BYTE   UNIT     CODE           ?PR?PIINIT
002C87H   002C8CH   000006H   BYTE   UNIT     CODE           ?PR?EXTERN0_INT?INTERRUPT
002C8DH   002C92H   000006H   BYTE   UNIT     CODE           ?PR?_CAN_VIDSETCANERROR?CAN
002C93H   002CAEH   00001CH   BYTE   UNIT     CONST          ?CO?HALL_V0
002CAFH   003FFFH   001351H   ---    ---      **GAP**
004000H   0040FFH   000100H   BYTE   OFFS..   CODE           ?CO?INTERRUPT?0

* * * * * * * * * * *  X D A T A   M E M O R Y  * * * * * * * * * * * * *
000000H   0000A8H   0000A9H   BYTE   UNIT     XDATA          ?XD?ANTIPINCH
0000A9H   000146H   00009EH   BYTE   UNIT     XDATA          ?XD?FU68XX_6_FLASH
000147H   0001C8H   000082H   BYTE   UNIT     XDATA          ?XD?ADDFUNCTION
0001C9H   00023DH   000075H   BYTE   UNIT     XDATA          ?XD?SEATFUN
00023EH   00029FH   000062H   BYTE   UNIT     XDATA          ?XD?MOTORPROTECT
0002A0H   0002ECH   00004DH   BYTE   UNIT     XDATA          ?XD?CANIF
0002EDH   000330H   000044H   BYTE   UNIT     XDATA          ?XD?MAIN
000331H   00036DH   00003DH   BYTE   UNIT     XDATA          _XDATA_GROUP_
00036EH   000389H   00001CH   BYTE   UNIT     XDATA          ?XD?HALL_V0
00038AH   00039EH   000015H   BYTE   UNIT     XDATA          ?XD?MOTORCONTROLFUNCTION
00039FH   0003B2H   000014H   BYTE   UNIT     XDATA          ?XD?CAN
0003B3H   0003C1H   00000FH   BYTE   UNIT     XDATA          ?XD?LIN
0003C2H   0003CEH   00000DH   BYTE   UNIT     XDATA          ?XD?HALLPROCESS
0003CFH   0003DAH   00000CH   BYTE   UNIT     XDATA          ?XD?INTERRUPT
0003DBH   0003E0H   000006H   BYTE   UNIT     XDATA          ?XD?SMDU
0003E1H   0003E3H   000003H   BYTE   UNIT     XDATA          ?XD?SLEEP
0003E4H   0003E4H   000001H   BYTE   UNIT     XDATA          ?XD?MOTORCONTROL

* * * * * * * * *   R E M O V E D     S E G M E N T S   * * * * * * * *
   *DEL*:           000001H   BYTE   UNIT     CODE           ?PR?DEBUGSET?MAIN
LX51 LINKER/LOCATER V4.66.87.0                                                        06/22/2026  16:51:37  PAGE 6


   *DEL*:           000019H   BYTE   UNIT     CODE           ?PR?MOTOR_FORCE_STOP?MAIN
   *DEL*:           000011H   BYTE   UNIT     CODE           ?PR?_ABS_F16?ADDFUNCTION
   *DEL*:           00001DH   BYTE   UNIT     CODE           ?PR?_ABS_F32?ADDFUNCTION
   *DEL*:           000004H   BYTE   UNIT     XDATA          ?XD?_ABS_F32?ADDFUNCTION
   *DEL*:           000115H   BYTE   UNIT     CODE           ?PR?PWMDUTYCAL?ADDFUNCTION
   *DEL*:           000051H   BYTE   UNIT     CODE           ?PR?VSPSAMPLE?ADDFUNCTION
   *DEL*:           000069H   BYTE   UNIT     CODE           ?PR?ONOFF_TEST?ADDFUNCTION
   *DEL*:           000001H   BYTE   UNIT     CODE           ?PR?TARGETREF_PROCESS?ADDFUNCTION
   *DEL*:           00009EH   BYTE   UNIT     CODE           ?PR?_MOTOR_RAMP?ADDFUNCTION
   *DEL*:           000039H   BYTE   UNIT     CODE           ?PR?ATORAMP?ADDFUNCTION
   *DEL*:           000038H   BYTE   UNIT     CODE           ?PR?MOTOR_ALIGN?MOTORCONTROLFUNCTION
   *DEL*:           00001CH   BYTE   UNIT     CODE           ?PR?MOTOR_FOCTAILWIND_OPEN?MOTORCONTROLFUNCTION
   *DEL*:           000028H   BYTE   UNIT     CODE           ?PR?MC_BREAK?MOTORCONTROLFUNCTION
   *DEL*:           00003DH   BYTE   UNIT     CODE           ?PR?FAULT_TEMPERATURE?MOTORPROTECT
   *DEL*:           0000A6H   BYTE   UNIT     CODE           ?PR?FAULT_VOLTAGE?MOTORPROTECT
   *DEL*:           0000F9H   BYTE   UNIT     CODE           ?PR?FAULT_STALL?MOTORPROTECT
   *DEL*:           0001AAH   BYTE   UNIT     CODE           ?PR?FAULT_PHASELOSS?MOTORPROTECT
   *DEL*:           00001FH   BYTE   UNIT     CODE           ?PR?SLEEPMODE_INIT?SLEEP
   *DEL*:           0000DBH   BYTE   UNIT     CODE           ?PR?SLEEPMODE?SLEEP
   *DEL*:           000001H   BYTE   UNIT     CODE           ?PR?MEMORYMODE?SEATFUN
   *DEL*:           000001H   BYTE   UNIT     CODE           ?PR?AUTOMODE?SEATFUN
   *DEL*:           000001H   BYTE   UNIT     CODE           ?PR?STUDYMODE?SEATFUN
   *DEL*:           000001H   BYTE   UNIT     CODE           ?PR?MOTORSET?SEATFUN
   *DEL*:           000001H   BYTE   UNIT     CODE           ?PR?SOFTPOINTDEAL?SEATFUN
   *DEL*:           000001H   BYTE   UNIT     CODE           ?PR?RUNMODE?SEATFUN
   *DEL*:           000001H   BYTE   UNIT     CODE           ?PR?STATEFEEDBACK?SEATFUN
   *DEL*:           000001H   BYTE   UNIT     CODE           ?PR?SAVE_DATA?SEATFUN
   *DEL*:           000001H   BYTE   UNIT     CODE           ?PR?SEATCONTRL?SEATFUN
   *DEL*:           000001H   BYTE   UNIT     CODE           ?PR?ANTIPINCHFUNCTION?ANTIPINCH
   *DEL*:           000001H   BYTE   UNIT     CODE           ?PR?CMP0_INIT?CMP
   *DEL*:           000040H   BYTE   UNIT     CODE           ?PR?_CRC_CHECK?CRC
   *DEL*:           000001H   BYTE   UNIT     XDATA          ?XD?_CRC_CHECK?CRC
   *DEL*:           000026H   BYTE   UNIT     CODE           ?PR?_SETPIPE_DMA0?DMA
   *DEL*:           000000H.1 BIT    UNIT     BIT            ?BI?_SETPIPE_DMA0?DMA
   *DEL*:           000026H   BYTE   UNIT     CODE           ?PR?_SETPIPE_DMA1?DMA
   *DEL*:           000000H.1 BIT    UNIT     BIT            ?BI?_SETPIPE_DMA1?DMA
   *DEL*:           00002EH   BYTE   UNIT     CODE           ?PR?_SETDATAPACKAGE_DMA0?DMA
   *DEL*:           000000H.1 BIT    UNIT     BIT            ?BI?_SETDATAPACKAGE_DMA0?DMA
   *DEL*:           00002AH   BYTE   UNIT     CODE           ?PR?_SETDATAPACKAGE_DMA1?DMA
   *DEL*:           000000H.1 BIT    UNIT     BIT            ?BI?_SETDATAPACKAGE_DMA1?DMA
   *DEL*:           000042H   BYTE   UNIT     CODE           ?PR?_SETENDIAN_DMA?DMA
   *DEL*:           000000H.2 BIT    UNIT     BIT            ?BI?_SETENDIAN_DMA?DMA
   *DEL*:           000024H   BYTE   UNIT     CODE           ?PR?_SETIRQ_DMA?DMA
   *DEL*:           00002EH   BYTE   UNIT     CODE           ?PR?SETDBGMOD_DMA?DMA
   *DEL*:           000000H.1 BIT    UNIT     BIT            ?BI?SETDBGMOD_DMA?DMA
   *DEL*:           000036H   BYTE   UNIT     CODE           ?PR?_SET_DBG_DMA?DMA
   *DEL*:           00002CH   BYTE   UNIT     CODE           ?PR?_SETDBGDATA_DMA?DMA
   *DEL*:           000000H.1 BIT    UNIT     BIT            ?BI?_SETDBGDATA_DMA?DMA
   *DEL*:           000008H   BYTE   UNIT     CODE           ?PR?ENABLERUN_DMA0?DMA
   *DEL*:           000008H   BYTE   UNIT     CODE           ?PR?ENABLERUN_DMA1?DMA
   *DEL*:           00000AH   BYTE   UNIT     CODE           ?PR?_GETSTATUS_DMA0?DMA
   *DEL*:           00000AH   BYTE   UNIT     CODE           ?PR?_GETSTATUS_DMA1?DMA
   *DEL*:           000008H   BYTE   UNIT     CODE           ?PR?DMA
   *DEL*:           000040H   BYTE   UNIT     CODE           ?PR?PI3_INIT?PIINIT
   *DEL*:           000039H   BYTE   UNIT     CODE           ?PR?SPI_INIT?SPI
   *DEL*:           000001H   BYTE   UNIT     CODE           ?PR?TIMER1_INIT?TIMER
   *DEL*:           00003FH   BYTE   UNIT     CODE           ?PR?TIMER2_INIT?TIMER
   *DEL*:           000037H   BYTE   UNIT     CODE           ?PR?TIME2_HALL_INIT?TIMER
   *DEL*:           000031H   BYTE   UNIT     CODE           ?PR?TIMER3_INIT?TIMER
   *DEL*:           000001H   BYTE   UNIT     CODE           ?PR?TIM4_INIT_RF?TIMER
   *DEL*:           00006BH   BYTE   UNIT     CODE           ?PR?UART2_INIT?UART
   *DEL*:           000025H   BYTE   UNIT     CODE           ?PR?UART1_INIT?UART
   *DEL*:           000016H   BYTE   UNIT     CODE           ?PR?_PUT_CHAR?UART
   *DEL*:           000013H   BYTE   UNIT     CODE           ?PR?_PUT_STRING?UART
   *DEL*:           000024H   BYTE   UNIT     CODE           ?PR?TSD_INIT?TSD
LX51 LINKER/LOCATER V4.66.87.0                                                        06/22/2026  16:51:37  PAGE 7


   *DEL*:           000008H   BYTE   UNIT     CODE           ?PR?TSD_GAIN?TSD
   *DEL*:           000019H   BYTE   UNIT     CODE           ?PR?_HW_ONE_PI?SMDU
   *DEL*:           000030H   BYTE   UNIT     CODE           ?PR?_LPFFUNCTION2?SMDU
   *DEL*:           000002H   BYTE   UNIT     XDATA          ?XD?_LPFFUNCTION2?SMDU
   *DEL*:           00001DH   BYTE   UNIT     CODE           ?PR?_ATAN_US_MDU?SMDU
   *DEL*:           000020H   BYTE   UNIT     CODE           ?PR?_DIVQ_L_MDU?SMDU
   *DEL*:           000032H   BYTE   UNIT     CODE           ?PR?LIN_INIT?LIN
   *DEL*:           00000AH   BYTE   UNIT     CODE           ?PR?SYNC_ERROR_CHECK?LIN
   *DEL*:           00000AH   BYTE   UNIT     CODE           ?PR?DATA_ERROR_CHECK?LIN
   *DEL*:           00000AH   BYTE   UNIT     CODE           ?PR?ID_ERROR_CHECK?LIN
   *DEL*:           000010H   BYTE   UNIT     CODE           ?PR?LIN_ERROR_HANDING?LIN
   *DEL*:           0000DEH   BYTE   UNIT     CODE           ?PR?LIN_LIST?LIN
   *DEL*:           0000F5H   BYTE   UNIT     CODE           ?PR?_RECEIVESYS?LIN
   *DEL*:           000001H   BYTE   UNIT     XDATA          ?XD?_RECEIVESYS?LIN
   *DEL*:           000012H   BYTE   UNIT     CODE           ?PR?LIN
   *DEL*:           0000B9H   BYTE   UNIT     CODE           ?PR?_FLASH_CTRL?FU68XX_6_FLASH
   *DEL*:           000002H   BYTE   UNIT     XDATA          ?XD?_FLASH_CTRL?FU68XX_6_FLASH
   *DEL*:           000000H.1 BIT    UNIT     BIT            ?BI?_FLASH_CTRL?FU68XX_6_FLASH
   *DEL*:           00001FH   BYTE   UNIT     CODE           ?PR?_FLASH_PAGEERASE?FU68XX_6_FLASH
   *DEL*:           000002H   BYTE   UNIT     XDATA          ?XD?_FLASH_PAGEERASE?FU68XX_6_FLASH
   *DEL*:           00001FH   BYTE   UNIT     CODE           ?PR?_FLASH_SECTORERASE?FU68XX_6_FLASH
   *DEL*:           000002H   BYTE   UNIT     XDATA          ?XD?_FLASH_SECTORERASE?FU68XX_6_FLASH
   *DEL*:           000016H   BYTE   UNIT     CODE           ?PR?_FLASH_BYTE_WRITE?FU68XX_6_FLASH
   *DEL*:           000001H   BYTE   UNIT     XDATA          ?XD?_FLASH_BYTE_WRITE?FU68XX_6_FLASH
   *DEL*:           00005EH   BYTE   UNIT     CODE           ?PR?FLASH_CRC_APP?FU68XX_6_FLASH
   *DEL*:           000073H   BYTE   UNIT     CODE           ?PR?_GETWRITE_BLACK_ADDR?FU68XX_6_FLASH
   *DEL*:           000004H   BYTE   UNIT     XDATA          ?XD?_GETWRITE_BLACK_ADDR?FU68XX_6_FLASH
   *DEL*:           000069H   BYTE   UNIT     CODE           ?PR?_WRITE_LENGTHBYTE?FU68XX_6_FLASH
   *DEL*:           000007H   BYTE   UNIT     XDATA          ?XD?_WRITE_LENGTHBYTE?FU68XX_6_FLASH
   *DEL*:           000049H   BYTE   UNIT     CODE           ?PR?_READFROMFLASH?FU68XX_6_FLASH
   *DEL*:           000007H   BYTE   UNIT     XDATA          ?XD?_READFROMFLASH?FU68XX_6_FLASH
   *DEL*:           00006FH   BYTE   UNIT     CODE           ?PR?_GETXBYTEFROMFLASH?FU68XX_6_FLASH
   *DEL*:           000007H   BYTE   UNIT     XDATA          ?XD?_GETXBYTEFROMFLASH?FU68XX_6_FLASH
   *DEL*:           000056H   BYTE   UNIT     CODE           ?PR?_WRITEXBYTE2FLASH?FU68XX_6_FLASH
   *DEL*:           000009H   BYTE   UNIT     XDATA          ?XD?_WRITEXBYTE2FLASH?FU68XX_6_FLASH
   *DEL*:           000129H   BYTE   UNIT     CODE           ?PR?FLASH_DATAINIT?FU68XX_6_FLASH
   *DEL*:           000004H   BYTE   UNIT     XDATA          ?XD?FLASH_DATAINIT?FU68XX_6_FLASH
   *DEL*:           000088H   BYTE   UNIT     CODE           ?PR?FLASH_ERASE?FU68XX_6_FLASH
   *DEL*:           000001H   BYTE   UNIT     XDATA          ?XD?FLASH_ERASE?FU68XX_6_FLASH
   *DEL*:           00012CH   BYTE   UNIT     CODE           ?PR?SAVEFAULT_FLASH?FU68XX_6_FLASH
   *DEL*:           000001H   BYTE   UNIT     XDATA          ?XD?SAVEFAULT_FLASH?FU68XX_6_FLASH
   *DEL*:           000008H   BYTE   UNIT     DATA           ?DT?_FLASH_CTRL?FU68XX_6_FLASH
   *DEL*:           0000F1H   BYTE   UNIT     CODE           ?PR?FU68XX_6_FLASH
   *DEL*:           00002EH   BYTE   UNIT     CODE           ?PR?_FLASH_SECTOR_ERASE?ONCHIPFLASH
   *DEL*:           000000H.1 BIT    UNIT     BIT            ?BI?_FLASH_SECTOR_ERASE?ONCHIPFLASH
   *DEL*:           00002DH   BYTE   UNIT     CODE           ?PR?_FLASH_SECTOR_WRITE?ONCHIPFLASH
   *DEL*:           000000H.1 BIT    UNIT     BIT            ?BI?_FLASH_SECTOR_WRITE?ONCHIPFLASH
   *DEL*:           000078H   BYTE   UNIT     CODE           ?PR?_WRITE2BYTE2FLASH?ONCHIPFLASH
   *DEL*:           000006H   BYTE   UNIT     XDATA          ?XD?_WRITE2BYTE2FLASH?ONCHIPFLASH
   *DEL*:           00004CH   BYTE   UNIT     CODE           ?PR?_GET2BYTEFROMFLASH?ONCHIPFLASH
   *DEL*:           000002H   BYTE   UNIT     XDATA          ?XD?_GET2BYTEFROMFLASH?ONCHIPFLASH
   *DEL*:           000023H   BYTE   UNIT     CODE           ?PR?ONCHIPFLASH
   *DEL*:           000011H   BYTE   UNIT     CODE           ?PR?CAN_U8ERRSTATE?CAN
   *DEL*:           000023H   BYTE   UNIT     CODE           ?PR?CANIF_VIDTESTCANSEND?CANIF



OVERLAY MAP OF MODULE:   .\Output\Fortior_FOC_FU68x6 (MAIN)


FUNCTION/MODULE                                BIT_GROUP   DATA_GROUP   XDATA_GROUP
--> CALLED FUNCTION/MODULE                    START  STOP  START  STOP  START  STOP
===================================================================================
LVW_TSD_INT/INTERRUPT                         ----- -----  ----- -----  ----- -----

LX51 LINKER/LOCATER V4.66.87.0                                                        06/22/2026  16:51:37  PAGE 8


*** NEW ROOT ********************************

EXTERN0_INT/INTERRUPT                         ----- -----  ----- -----  ----- -----

*** NEW ROOT ********************************

DRV_ISR/INTERRUPT                             ----- -----  ----- -----  ----- -----
  +--> HALLTIMERPROCESS/HALLPROCESS

HALLTIMERPROCESS/HALLPROCESS                  ----- -----  0008H 000BH  ----- -----
  +--> _HALLTIMERUPDATE/HALL_V0
  +--> HALLPROCESS

_HALLTIMERUPDATE/HALL_V0                      ----- -----  ----- -----  ----- -----
  +--> HALL_V0

HALL_V0                                       ----- -----  ----- -----  ----- -----

HALLPROCESS                                   ----- -----  ----- -----  ----- -----

*** NEW ROOT ********************************

TIM1_INT/INTERRUPT                            ----- -----  ----- -----  ----- -----
  +--> HALLOVERFLOWCLEAR/HALL_V0
  +--> HALLTRIGPROCESS/HALLPROCESS

HALLOVERFLOWCLEAR/HALL_V0                     ----- -----  ----- -----  ----- -----

HALLTRIGPROCESS/HALLPROCESS                   ----- -----  000CH 000FH  0331H 0331H
  +--> _HALLUPDATEDETECT/HALL_V0
  +--> HALLPROCESS
  +--> _HALLUPDATEPROCESS/HALL_V0
  +--> _MDUCAL/SMDU
  +--> _HALLCALCULATION/HALL_V0

_HALLUPDATEDETECT/HALL_V0                     20H.1 20H.1  ----- -----  0332H 0333H
  +--> _GETHALLSTATUS/HALL_V0

_GETHALLSTATUS/HALL_V0                        ----- -----  ----- -----  ----- -----

_HALLUPDATEPROCESS/HALL_V0                    ----- -----  ----- -----  ----- -----
  +--> UPDATEHALLFRANDLOSSSTATUS/HALL_V0
  +--> SECTORTHETACALCULATION/HALL_V0
  +--> THETACALCULATION/HALL_V0

UPDATEHALLFRANDLOSSSTATUS/HALL_V0             ----- -----  ----- -----  ----- -----
  +--> HALL_V0

SECTORTHETACALCULATION/HALL_V0                ----- -----  ----- -----  ----- -----
  +--> HALL_V0

THETACALCULATION/HALL_V0                      ----- -----  ----- -----  ----- -----

_MDUCAL/SMDU                                  ----- -----  0010H 0015H  ----- -----
  +--> SMDU

SMDU                                          ----- -----  ----- -----  ----- -----

_HALLCALCULATION/HALL_V0                      ----- -----  ----- -----  ----- -----
  +--> HALL_V0

*** NEW ROOT ********************************

TIM2_INT/INTERRUPT                            ----- -----  ----- -----  ----- -----

LX51 LINKER/LOCATER V4.66.87.0                                                        06/22/2026  16:51:37  PAGE 9


*** NEW ROOT ********************************

TIM3_INT/INTERRUPT                            ----- -----  ----- -----  ----- -----

*** NEW ROOT ********************************

SYSTICK_INT/INTERRUPT                         ----- -----  ----- -----  ----- -----

*** NEW ROOT ********************************

CMP3_INT/INTERRUPT                            ----- -----  ----- -----  ----- -----

*** NEW ROOT ********************************

CAN_INT/INTERRUPT                             ----- -----  ----- -----  ----- -----
  +--> CAN_VIDREADFRAME/CAN
  +--> _CAN_VIDSETCANERROR/CAN

CAN_VIDREADFRAME/CAN                          ----- -----  ----- -----  0334H 0334H
  +--> CAN
  +--> _CANIF_VIDRECEIVEPROCESS/CANIF

CAN                                           ----- -----  ----- -----  ----- -----

_CANIF_VIDRECEIVEPROCESS/CANIF                ----- -----  ----- -----  0335H 033DH
  +--> CANIF

CANIF                                         ----- -----  ----- -----  ----- -----

_CAN_VIDSETCANERROR/CAN                       ----- -----  ----- -----  ----- -----

*** NEW ROOT ********************************

?C_C51STARTUP                                 ----- -----  ----- -----  ----- -----
  +--> MAIN/MAIN
  +--> ?C_INITSEG

MAIN/MAIN                                     ----- -----  ----- -----  033EH 033EH
  +--> SOFTWAREINIT/MAIN
  +--> HARDWAREINIT/MAIN
  +--> _HALLINIT/HALL_V0
  +--> GETCURRENTOFFSET/MOTORCONTROLFUNCTION
  +--> MC_CONTROL/MOTORCONTROL
  +--> MOTOR_CTRL_MAIN/MAIN
  +--> TICKCYCLE_1MS/ADDFUNCTION
  +--> CANIF_VIDTRANSPROCESS/CANIF
  +--> CAN_VIDSTATEMACHINE/CAN
  +--> CANIF_VIDCOMLOSTDIAG/CANIF

SOFTWAREINIT/MAIN                             ----- -----  ----- -----  ----- -----
  +--> MAIN
  +--> MOTORCONTROLINIT/MOTORCONTROLFUNCTION

MAIN                                          ----- -----  ----- -----  ----- -----

MOTORCONTROLINIT/MOTORCONTROLFUNCTION         ----- -----  ----- -----  ----- -----
  +--> MOTORCONTROLFUNCTION

MOTORCONTROLFUNCTION                          ----- -----  ----- -----  ----- -----

HARDWAREINIT/MAIN                             ----- -----  ----- -----  ----- -----
  +--> VREFCONFIGINIT/MAIN
  +--> CMP3_INIT/CMP
  +--> GPIO_INIT/GPIO
  +--> ADC_INIT/ADC
LX51 LINKER/LOCATER V4.66.87.0                                                        06/22/2026  16:51:37  PAGE 10


  +--> AMP_INIT/AMP
  +--> CAN_VIDINIT/CAN
  +--> CANIF_VIDDATAINIT/CANIF
  +--> CMP3_INTERRUPT_INIT/CMP
  +--> TIM1_HALL_INIT/TIMER
  +--> DRIVER_INIT/DRIVER

VREFCONFIGINIT/MAIN                           ----- -----  ----- -----  ----- -----

CMP3_INIT/CMP                                 ----- -----  ----- -----  ----- -----

GPIO_INIT/GPIO                                ----- -----  ----- -----  ----- -----

ADC_INIT/ADC                                  ----- -----  ----- -----  ----- -----

AMP_INIT/AMP                                  ----- -----  ----- -----  ----- -----

CAN_VIDINIT/CAN                               ----- -----  ----- -----  033FH 034CH
  +--> CAN

CANIF_VIDDATAINIT/CANIF                       ----- -----  ----- -----  ----- -----
  +--> CANIF

CMP3_INTERRUPT_INIT/CMP                       ----- -----  ----- -----  ----- -----

TIM1_HALL_INIT/TIMER                          ----- -----  ----- -----  ----- -----

DRIVER_INIT/DRIVER                            ----- -----  ----- -----  ----- -----

_HALLINIT/HALL_V0                             ----- -----  ----- -----  033FH 0349H
  +--> UPDATEHALLMODE/HALL_V0
  +--> _HALLTHETAINIT/HALL_V0

UPDATEHALLMODE/HALL_V0                        ----- -----  ----- -----  ----- -----

_HALLTHETAINIT/HALL_V0                        ----- -----  ----- -----  ----- -----
  +--> _GETHALLSTATUS/HALL_V0
  +--> HALL_V0

GETCURRENTOFFSET/MOTORCONTROLFUNCTION         ----- -----  ----- -----  ----- -----

MC_CONTROL/MOTORCONTROL                       ----- -----  ----- -----  ----- -----
  +--> MOTOR_READY/MOTORCONTROLFUNCTION
  +--> MOTOR_INIT/MOTORCONTROLFUNCTION
  +--> MOTOR_CHARGE/MOTORCONTROLFUNCTION
  +--> MOTOR_STATIC_OPEN/MOTORCONTROLFUNCTION
  +--> MOTOR_STOP/MOTORCONTROLFUNCTION

MOTOR_READY/MOTORCONTROLFUNCTION              ----- -----  ----- -----  ----- -----
  +--> MOTORCONTROLFUNCTION

MOTOR_INIT/MOTORCONTROLFUNCTION               ----- -----  ----- -----  ----- -----
  +--> VARIABLESPREINIT/MOTORCONTROLFUNCTION
  +--> PI_INIT/PIINIT
  +--> _HALLTHETAINIT/HALL_V0

VARIABLESPREINIT/MOTORCONTROLFUNCTION         ----- -----  ----- -----  ----- -----
  +--> MOTORCONTROLFUNCTION

PI_INIT/PIINIT                                ----- -----  ----- -----  ----- -----
  +--> PIINIT

PIINIT                                        ----- -----  ----- -----  ----- -----

MOTOR_CHARGE/MOTORCONTROLFUNCTION             ----- -----  ----- -----  ----- -----
LX51 LINKER/LOCATER V4.66.87.0                                                        06/22/2026  16:51:37  PAGE 11


  +--> MOTORCONTROLFUNCTION

MOTOR_STATIC_OPEN/MOTORCONTROLFUNCTION        ----- -----  ----- -----  ----- -----
  +--> FOC_INIT/MOTORCONTROLFUNCTION
  +--> MOTORCONTROLFUNCTION

FOC_INIT/MOTORCONTROLFUNCTION                 ----- -----  ----- -----  ----- -----
  +--> MOTORCONTROLFUNCTION

MOTOR_STOP/MOTORCONTROLFUNCTION               ----- -----  ----- -----  ----- -----
  +--> MOTORCONTROLFUNCTION

MOTOR_CTRL_MAIN/MAIN                          ----- -----  ----- -----  ----- -----
  +--> _MOTOR_POSITION_SET/MAIN

_MOTOR_POSITION_SET/MAIN                      ----- -----  ----- -----  033FH 0340H
  +--> MAIN

TICKCYCLE_1MS/ADDFUNCTION                     ----- -----  ----- -----  ----- -----
  +--> _LPFFUNCTION/SMDU
  +--> SPEED_RESPONSE/ADDFUNCTION
  +--> FAULT_DETECTION/MOTORPROTECT

_LPFFUNCTION/SMDU                             ----- -----  ----- -----  033FH 0340H
  +--> SMDU

SPEED_RESPONSE/ADDFUNCTION                    ----- -----  ----- -----  033FH 034AH
  +--> ADDFUNCTION
  +--> _ABS/ABS
  +--> _PID_OUTPUT/ADDFUNCTION

ADDFUNCTION                                   ----- -----  ----- -----  ----- -----

_ABS/ABS                                      ----- -----  ----- -----  ----- -----

_PID_OUTPUT/ADDFUNCTION                       ----- -----  ----- -----  034BH 036DH
  +--> ADDFUNCTION

FAULT_DETECTION/MOTORPROTECT                  ----- -----  ----- -----  ----- -----
  +--> FAULT_RECOVERY/MOTORPROTECT

FAULT_RECOVERY/MOTORPROTECT                   ----- -----  ----- -----  ----- -----
  +--> MOTORPROTECT

MOTORPROTECT                                  ----- -----  ----- -----  ----- -----

CANIF_VIDTRANSPROCESS/CANIF                   ----- -----  ----- -----  ----- -----
  +--> CANIF
  +--> _CAN_VIDSENDMSG/CAN

_CAN_VIDSENDMSG/CAN                           ----- -----  ----- -----  033FH 0344H
  +--> CAN

CAN_VIDSTATEMACHINE/CAN                       ----- -----  ----- -----  ----- -----

CANIF_VIDCOMLOSTDIAG/CANIF                    ----- -----  ----- -----  ----- -----
  +--> CANIF

?C_INITSEG                                    ----- -----  ----- -----  ----- -----



PUBLIC SYMBOLS OF MODULE:  .\Output\Fortior_FOC_FU68x6 (MAIN)


LX51 LINKER/LOCATER V4.66.87.0                                                        06/22/2026  16:51:37  PAGE 12


      VALUE       CLASS    TYPE      PUBLIC SYMBOL NAME
      =================================================
      0200033FH   XDATA    BYTE      ?_CAN_vidSendMsg?BYTE
      02000335H   XDATA    BYTE      ?_CANIF_vidReceiveProcess?BYTE
*DEL*:00000000H   XDATA    BYTE      ?_GetXByteFromFlash?BYTE
      0200033FH   XDATA    BYTE      ?_HallInit?BYTE
      0200034BH   XDATA    BYTE      ?_PID_Output?BYTE
      010003CCH   CODE     ---       ?C?CASTF
      0100081DH   CODE     ---       ?C?CCASE
      0100055CH   CODE     ---       ?C?CLDOPTR
      01000543H   CODE     ---       ?C?CLDPTR
      00000000H   NUMBER   ---       ?C?CODESEG
      0100051DH   CODE     ---       ?C?COPY
      01000589H   CODE     ---       ?C?CSTOPTR
      01000398H   CODE     ---       ?C?FCASTC
      01000393H   CODE     ---       ?C?FCASTI
      0100038EH   CODE     ---       ?C?FCASTL
      0100006DH   CODE     ---       ?C?FPADD
      01000306H   CODE     ---       ?C?FPCMP
      01000304H   CODE     ---       ?C?FPCMP3
      01000267H   CODE     ---       ?C?FPDIV
      01000403H   CODE     ---       ?C?FPGETOPN2
      0100015EH   CODE     ---       ?C?FPMUL
      01000438H   CODE     ---       ?C?FPNANRESULT
      0100037DH   CODE     ---       ?C?FPNEG
      01000442H   CODE     ---       ?C?FPOVERFLOW
      0100041AH   CODE     ---       ?C?FPRESULT
      0100042EH   CODE     ---       ?C?FPRESULT2
      01000069H   CODE     ---       ?C?FPSUB
      0100043FH   CODE     ---       ?C?FPUNDERFLOW
      01000600H   CODE     ---       ?C?IILDX
      01000616H   CODE     ---       ?C?ILDOPTR
      0100064EH   CODE     ---       ?C?ISTOPTR
      0100067BH   CODE     ---       ?C?LADD
      01000843H   CODE     ---       ?C?LCASE
      010008C1H   CODE     ---       ?C?LLDCODE
      010008EBH   CODE     ---       ?C?LLDCODE0
      010008A9H   CODE     ---       ?C?LLDIDATA
      010008D1H   CODE     ---       ?C?LLDIDATA0
      01000732H   CODE     ---       ?C?LLDOPTR
      0100079EH   CODE     ---       ?C?LLDOPTR0
      010008B5H   CODE     ---       ?C?LLDPDATA
      010008DEH   CODE     ---       ?C?LLDPDATA0
      01000712H   CODE     ---       ?C?LLDPTR
      01000786H   CODE     ---       ?C?LLDXDATA
      01000792H   CODE     ---       ?C?LLDXDATA0
      010006A3H   CODE     ---       ?C?LNEG
      01000696H   CODE     ---       ?C?LOR
      010006FFH   CODE     ---       ?C?LSHL
      010008FBH   CODE     ---       ?C?LSTIDATA
      010007DAH   CODE     ---       ?C?LSTKXDATA
      01000762H   CODE     ---       ?C?LSTOPTR
      01000907H   CODE     ---       ?C?LSTPDATA
      010007CEH   CODE     ---       ?C?LSTXDATA
      01000688H   CODE     ---       ?C?LSUB
      0100087DH   CODE     ---       ?C?MEMSET
      0100080BH   CODE     ---       ?C?PLDXDATA
      01000814H   CODE     ---       ?C?PSTXDATA
      010006B1H   CODE     ---       ?C?SLCMP
      010006EBH   CODE     ---       ?C?SLSHR
      010005ABH   CODE     ---       ?C?UIDIV
      010006C7H   CODE     ---       ?C?ULCMP
      010006D8H   CODE     ---       ?C?ULSHR
      00000000H   NUMBER   ---       ?C?XDATASEG
      01001E35H   CODE     ---       ?C_START
LX51 LINKER/LOCATER V4.66.87.0                                                        06/22/2026  16:51:37  PAGE 13


      01000000H   CODE     ---       ?C_STARTUP
      01000056H   CODE     ---       _ABS
*DEL*:00000000H   CODE     ---       _Abs_F16
*DEL*:00000000H   CODE     ---       _Abs_F32
*DEL*:00000000H   CODE     ---       _Atan_Us_MDU
      01001996H   CODE     ---       _CAN_vidSendMsg
      01002C8DH   CODE     ---       _CAN_vidSetCanError
      0100272CH   CODE     ---       _CANIF_vidReceiveProcess
*DEL*:00000000H   CODE     ---       _CRC_Check
*DEL*:00000000H   CODE     ---       _DivQ_L_MDU
*DEL*:00000000H   CODE     ---       _Flash_byte_Write
*DEL*:00000000H   CODE     ---       _Flash_Ctrl
*DEL*:00000000H   CODE     ---       _Flash_PageErase
*DEL*:00000000H   CODE     ---       _Flash_Sector_Erase
*DEL*:00000000H   CODE     ---       _Flash_Sector_Write
*DEL*:00000000H   CODE     ---       _Flash_SectorErase
*DEL*:00000000H   CODE     ---       _Get2ByteFromFlash
      01002608H   CODE     ---       _GetHallStatus
*DEL*:00000000H   CODE     ---       _GetStatus_DMA0
*DEL*:00000000H   CODE     ---       _GetStatus_DMA1
*DEL*:00000000H   CODE     ---       _GetWrite_Black_Addr
*DEL*:00000000H   CODE     ---       _GetXByteFromFlash
      01001D46H   CODE     ---       _HallCalculation
      01002853H   CODE     ---       _HallInit
      0100000EH   CODE     ---       _HallThetaInit
      01001251H   CODE     ---       _HallTimerUpdate
      01002A71H   CODE     ---       _HallUpdateDetect
      010015A5H   CODE     ---       _HallUpdateProcess
*DEL*:00000000H   CODE     ---       _HW_One_PI
      01002A14H   CODE     ---       _LPFFunction
*DEL*:00000000H   CODE     ---       _LPFFunction2
      01001E7AH   CODE     ---       _MDUCal
      01002A44H   CODE     ---       _Motor_position_set
*DEL*:00000000H   CODE     ---       _Motor_Ramp
      01001372H   CODE     ---       _PID_Output
*DEL*:00000000H   CODE     ---       _put_char
*DEL*:00000000H   CODE     ---       _put_string
*DEL*:00000000H   CODE     ---       _ReadFromFlash
*DEL*:00000000H   CODE     ---       _ReceiveSYS
*DEL*:00000000H   CODE     ---       _Set_DBG_DMA
*DEL*:00000000H   CODE     ---       _SetDataPackage_DMA0
*DEL*:00000000H   CODE     ---       _SetDataPackage_DMA1
*DEL*:00000000H   CODE     ---       _SetDbgData_DMA
*DEL*:00000000H   CODE     ---       _SetEndian_DMA
*DEL*:00000000H   CODE     ---       _SetIRQ_DMA
*DEL*:00000000H   CODE     ---       _SetPipe_DMA0
*DEL*:00000000H   CODE     ---       _SetPipe_DMA1
*DEL*:00000000H   CODE     ---       _Write2Byte2Flash
*DEL*:00000000H   CODE     ---       _Write_LengthByte
*DEL*:00000000H   CODE     ---       _WriteXByte2Flash
*SFR* 000000D0H.6 DATA     BIT       AC
*SFR* 000000E0H   DATA     BYTE      ACC
      0100288FH   CODE     ---       ADC_Init
      01002ACBH   CODE     ---       AMP_Init
      02000050H   XDATA    BYTE      AntiFlag
*DEL*:00000000H   CODE     ---       AntiPinchFunction
*DEL*:00000000H   CODE     ---       ATORamp
*DEL*:00000000H   CODE     ---       AutoMode
*SFR* 000000CEH   DATA     BYTE      CAN_ALC
*SFR* 000000B7H   DATA     BYTE      CAN_BTR0
*SFR* 000000C2H   DATA     BYTE      CAN_BTR1
*SFR* 000000C3H   DATA     BYTE      CAN_BTR2
*SFR* 000000B1H   DATA     BYTE      CAN_CR0
*SFR* 000000B2H   DATA     BYTE      CAN_CR1
*SFR* 000000B5H   DATA     BYTE      CAN_CR2
LX51 LINKER/LOCATER V4.66.87.0                                                        06/22/2026  16:51:37  PAGE 14


      020002BBH   XDATA    ---       CAN_data_RX_1
      020002C3H   XDATA    ---       CAN_data_RX_2
      020002CBH   XDATA    ---       CAN_data_RX_3
      020002D3H   XDATA    ---       CAN_data_TX_1
      020002DBH   XDATA    ---       CAN_data_TX_2
      020002E3H   XDATA    ---       CAN_data_TX_3
*SFR* 000000CFH   DATA     BYTE      CAN_ESR
*SFR* 000000C4H   DATA     BYTE      CAN_FIR0
*SFR* 000000C5H   DATA     BYTE      CAN_FIR1
*SFR* 000000C6H   DATA     BYTE      CAN_FIR2
*SFR* 000000C7H   DATA     BYTE      CAN_FIR3
*SFR* 000000CAH   DATA     BYTE      CAN_FMR0
*SFR* 000000CBH   DATA     BYTE      CAN_FMR1
*SFR* 000000CCH   DATA     BYTE      CAN_FMR2
*SFR* 000000CDH   DATA     BYTE      CAN_FMR3
*SFR* 000000B4H   DATA     BYTE      CAN_IER
*SFR* 000000B6H   DATA     BYTE      CAN_IFR
      01002256H   CODE     ---       Can_INT
*SFR* 000000DDH   DATA     BYTE      CAN_LIM
*SFR* 000000DFH   DATA     BYTE      CAN_REC
*SFR* 000000B3H   DATA     BYTE      CAN_SR
      020003A0H   XDATA    ---       CAN_strRxPduTemp
*SFR* 000000DEH   DATA     BYTE      CAN_TEC
      020003B1H   XDATA    WORD      CAN_u16StateTimCnt
      0200039FH   XDATA    BYTE      CAN_u8DrvState
*DEL*:00000000H   CODE     ---       CAN_u8ErrState
      020003B0H   XDATA    BYTE      CAN_u8RecoverCnt
      020003AFH   XDATA    BYTE      CAN_u8SoftErrorType
      010016B7H   CODE     ---       CAN_vidInit
      01000913H   CODE     ---       CAN_vidReadFrame
      01002350H   CODE     ---       CAN_vidStateMachine
      020002ACH   XDATA    ---       CANIF_strS31Mcu1Head
      020002B1H   XDATA    ---       CANIF_strS31Mcu2Head
      020002B6H   XDATA    ---       CANIF_strS31Mcu3Head
      020002A0H   XDATA    ---       CANIF_strS31Pdcu1Head
      020002A4H   XDATA    ---       CANIF_strS31Pdcu2Head
      020002A8H   XDATA    ---       CANIF_strS31Pdcu3Head
      020002EBH   XDATA    WORD      CANIF_u16TxPeriodCnt
      010020CCH   CODE     ---       CANIF_vidComLostDiag
      010027C8H   CODE     ---       CANIF_vidDataInit
*DEL*:00000000H   CODE     ---       CANIF_vidTestCanSend
      01002671H   CODE     ---       CANIF_vidTransProcess
      020003D0H   XDATA    BYTE      cc
      01004000H   CODE     ---       cg10_caVer
*DEL*:00000000H   CODE     ---       CMP0_Init
      010029AEH   CODE     ---       CMP3_Init
      01002C3DH   CODE     ---       CMP3_INT
      01002C66H   CODE     ---       CMP3_Interrupt_Init
*SFR* 000000D5H   DATA     BYTE      CMP_CR0
*SFR* 000000D6H   DATA     BYTE      CMP_CR1
*SFR* 000000DAH   DATA     BYTE      CMP_CR2
*SFR* 000000DCH   DATA     BYTE      CMP_CR3
*SFR* 000000E1H   DATA     BYTE      CMP_CR4
*SFR* 000000D7H   DATA     BYTE      CMP_SR
      020000A6H   XDATA    BYTE      CntIq
      02000095H   XDATA    BYTE      CntTime
*SFR* 000000D0H.7 DATA     BIT       CY
*DEL*:00000000H   CODE     ---       Data_Error_Check
      0200019BH   XDATA    ---       debug_ONOFFTest
      02000388H   XDATA    WORD      Degree_set
*SFR* 00000082H   DATA     WORD      DPTR
      010024B6H   CODE     ---       Driver_Init
      010021D5H   CODE     ---       DRV_ISR
*SFR* 000000F8H   DATA     BYTE      DRV_OUT
*SFR* 000000A8H.7 DATA     BIT       EA
LX51 LINKER/LOCATER V4.66.87.0                                                        06/22/2026  16:51:37  PAGE 15


*DEL*:00000000H   CODE     ---       EnableRun_DMA0
*DEL*:00000000H   CODE     ---       EnableRun_DMA1
      020003B6H   XDATA    BYTE      Erase_Flage
      020003B7H   XDATA    WORD      err
      020003D9H   XDATA    BYTE      Err1
      020003DAH   XDATA    BYTE      Err2
      0000007BH   DATA     INT       ErRTheStep
*SFR* 000000A8H.4 DATA     BIT       ES0
*SFR* 000000D9H   DATA     BYTE      EVT_FILT
*SFR* 000000A8H.0 DATA     BIT       EX0
*SFR* 000000A8H.2 DATA     BIT       EX1
      01002C87H   CODE     ---       EXTERN0_INT
*SFR* 000000D0H.5 DATA     BIT       F0
*SFR* 000000D0H.1 DATA     BIT       F1
      0200023EH   XDATA    ---       Fault
      01000006H   CODE     ---       Fault_Detection
*DEL*:00000000H   CODE     ---       Fault_PhaseLoss
      01000FF3H   CODE     ---       Fault_Recovery
*DEL*:00000000H   CODE     ---       Fault_Stall
*DEL*:00000000H   CODE     ---       Fault_Temperature
*DEL*:00000000H   CODE     ---       Fault_Voltage
*SFR* 00000085H   DATA     BYTE      FLA_CR
*SFR* 00000084H   DATA     BYTE      FLA_KEY
*DEL*:00000000H   CODE     ---       Flash_CRC_APP
*DEL*:00000000H   CODE     ---       Flash_DataInit
*DEL*:00000000H   CODE     ---       Flash_Erase
      020000AAH   XDATA    ---       FlashTest
      020000A9H   XDATA    BYTE      FlashWriteStatus
      010018ADH   CODE     ---       FOC_Init
      00000018H   DATA     BYTE      g_100mTick
      00000016H   DATA     BYTE      g_10mTick
      00000019H   DATA     BYTE      g_1mTick
      00000017H   DATA     BYTE      g_50mTick
      01002151H   CODE     ---       GetCurrentOffset
*SFR* 00000080H.0 DATA     BIT       GP00
*SFR* 00000080H.1 DATA     BIT       GP01
*SFR* 00000080H.2 DATA     BIT       GP02
*SFR* 00000080H.3 DATA     BIT       GP03
*SFR* 00000080H.4 DATA     BIT       GP04
*SFR* 00000080H.5 DATA     BIT       GP05
*SFR* 00000080H.6 DATA     BIT       GP06
*SFR* 00000080H.7 DATA     BIT       GP07
*SFR* 00000090H.0 DATA     BIT       GP10
*SFR* 00000090H.1 DATA     BIT       GP11
*SFR* 00000090H.2 DATA     BIT       GP12
*SFR* 00000090H.3 DATA     BIT       GP13
*SFR* 00000090H.4 DATA     BIT       GP14
*SFR* 00000090H.5 DATA     BIT       GP15
*SFR* 00000090H.6 DATA     BIT       GP16
*SFR* 00000090H.7 DATA     BIT       GP17
*SFR* 000000A0H.0 DATA     BIT       GP20
*SFR* 000000A0H.1 DATA     BIT       GP21
*SFR* 000000A0H.2 DATA     BIT       GP22
*SFR* 000000A0H.3 DATA     BIT       GP23
*SFR* 000000A0H.4 DATA     BIT       GP24
*SFR* 000000A0H.5 DATA     BIT       GP25
*SFR* 000000A0H.6 DATA     BIT       GP26
*SFR* 000000A0H.7 DATA     BIT       GP27
*SFR* 000000B0H.0 DATA     BIT       GP30
*SFR* 000000B0H.1 DATA     BIT       GP31
*SFR* 000000B0H.2 DATA     BIT       GP32
*SFR* 000000B0H.3 DATA     BIT       GP33
*SFR* 000000B0H.4 DATA     BIT       GP34
*SFR* 000000B0H.5 DATA     BIT       GP35
*SFR* 000000B0H.6 DATA     BIT       GP36
LX51 LINKER/LOCATER V4.66.87.0                                                        06/22/2026  16:51:37  PAGE 16


*SFR* 000000B0H.7 DATA     BIT       GP37
*SFR* 000000B8H.1 DATA     BIT       GP41
*SFR* 000000B8H.2 DATA     BIT       GP42
*SFR* 000000B8H.3 DATA     BIT       GP43
*SFR* 000000B8H.4 DATA     BIT       GP44
*SFR* 000000B8H.5 DATA     BIT       GP45
*SFR* 000000B8H.6 DATA     BIT       GP46
      01002BF4H   CODE     ---       GPIO_Init
      01002C9AH   CONST    ---       Hall_ALoss_CWNext
      020003C3H   XDATA    ---       Hall_Angle_Arr
      01002CA1H   CONST    ---       Hall_BLoss_CWNext
      01002CA8H   CONST    ---       Hall_CLoss_CWNext
*SFR* 000000E2H   DATA     BYTE      HALL_CR
      01002C93H   CONST    ---       Hall_CWNext
      0200032FH   XDATA    INT       Hall_delta_acc
      0200037CH   XDATA    ---       Hall_Theta_Arr
      0200036EH   XDATA    ---       HallLossArray
      01002C25H   CODE     ---       HallOverFlowClear
      00000021H   DATA     ---       hallPara
      0100293FH   CODE     ---       HallTimerProcess
      0100148EH   CODE     ---       HallTrigProcess
      02000051H   XDATA    ---       HistoryIQ
      02000000H   XDATA    ---       HistoryTime
      020000A7H   XDATA    BYTE      i
*DEL*:00000000H   CODE     ---       ID_Error_Check
*SFR* 000000A8H   DATA     BYTE      IE
*SFR* 00000088H.2 DATA     BIT       IF0
*SFR* 0000008AH   DATA     BYTE      IP0
*SFR* 0000008BH   DATA     BYTE      IP1
*SFR* 0000008CH   DATA     BYTE      IP2
*SFR* 0000008DH   DATA     BYTE      IP3
      00000020H.0 BIT      BIT       isCtrlPowOn
*SFR* 00000088H.0 DATA     BIT       IT00
*SFR* 00000088H.1 DATA     BIT       IT01
*SFR* 00000088H.3 DATA     BIT       IT10
*SFR* 00000088H.4 DATA     BIT       IT11
      020000A8H   XDATA    BYTE      j
      0200037AH   XDATA    WORD      KKK
      020001F0H   XDATA    ---       LegrestRotate
*SFR* 000000BEH   DATA     WORD      LIN_BAUD
*SFR* 000000B9H   DATA     BYTE      LIN_CR
*SFR* 000000BBH   DATA     BYTE      LIN_CSR
*DEL*:00000000H   CODE     ---       LIN_Error_Handing
*SFR* 000000BCH   DATA     BYTE      LIN_ID
      020003B3H   XDATA    BYTE      LIN_ID1
*DEL*:00000000H   CODE     ---       LIN_Init
*DEL*:00000000H   CODE     ---       LIN_list
*SFR* 000000BDH   DATA     BYTE      LIN_SIZE
*SFR* 000000BAH   DATA     BYTE      LIN_SR
      020003B4H   XDATA    WORD      LinReceiveLen
*SFR* 000000DBH   DATA     BYTE      LVSR
      01002B74H   CODE     ---       LVW_TSD_INT
      01001CABH   CODE     ---       main
*DEL*:00000000H   CODE     ---       MC_Break
      01001130H   CODE     ---       MC_Control
      0200038AH   XDATA    ---       mcCurOffset
      0000007DH   IDATA    ---       mcCurVarible
*SFR* 000000A8H.5 DATA     BIT       MCDIE
*SFR* 00000088H.6 DATA     BIT       MCDIF
      0000001BH   DATA     BYTE      mcFaultSource
      02000157H   XDATA    ---       mcFocCtrl
      0200028AH   XDATA    BYTE      mcPOSTErrSource
      020001B6H   XDATA    ---       mcPwmInput
      02000149H   XDATA    ---       mcRefRamp
      020003E4H   XDATA    ---       McStaSet
LX51 LINKER/LOCATER V4.66.87.0                                                        06/22/2026  16:51:37  PAGE 17


      0000001AH   DATA     BYTE      mcState
*SFR* 000000C1H   DATA     BYTE      MDU_CR
*DEL*:00000000H   CODE     ---       Memorymode
      020001C9H   XDATA    ---       Memorytic_Data
*SFR* 000000F8H.7 DATA     BIT       MOE
*DEL*:00000000H   CODE     ---       Motor_Align
      01001A6AH   CODE     ---       Motor_Charge
      01002B4BH   CODE     ---       Motor_ctrl_main
      020001A2H   XDATA    ---       Motor_DATA
*DEL*:00000000H   CODE     ---       Motor_FocTailWind_Open
*DEL*:00000000H   CODE     ---       Motor_force_stop
      01002C0DH   CODE     ---       Motor_Init
      0100002EH   CODE     ---       Motor_Ready
      01002780H   CODE     ---       Motor_Static_Open
      010017BDH   CODE     ---       Motor_Stop
      020001F2H   XDATA    ---       MotorControl
      010028CBH   CODE     ---       MotorcontrolInit
*DEL*:00000000H   CODE     ---       MotorSet
      0200032AH   XDATA    BYTE      NAD
*SFR* 000000F8H.0 DATA     BIT       OISUH
*SFR* 000000F8H.1 DATA     BIT       OISUL
*SFR* 000000F8H.2 DATA     BIT       OISVH
*SFR* 000000F8H.3 DATA     BIT       OISVL
*SFR* 000000F8H.4 DATA     BIT       OISWH
*SFR* 000000F8H.5 DATA     BIT       OISWL
*DEL*:00000000H   CODE     ---       ONOFF_Test
*SFR* 000000F1H   DATA     BYTE      OSC_CFG
*SFR* 000000D0H.2 DATA     BIT       OV
*SFR* 000000D0H.0 DATA     BIT       P
*SFR* 00000080H   DATA     BYTE      P0
*SFR* 000000FCH   DATA     BYTE      P0_OE
*SFR* 00000090H   DATA     BYTE      P1
*SFR* 000000D1H   DATA     BYTE      P1_IE
*SFR* 000000D2H   DATA     BYTE      P1_IF
*SFR* 000000FDH   DATA     BYTE      P1_OE
*SFR* 000000A0H   DATA     BYTE      P2
*SFR* 000000FEH   DATA     BYTE      P2_OE
*SFR* 000000B0H   DATA     BYTE      P3
*SFR* 000000FFH   DATA     BYTE      P3_OE
*SFR* 000000B8H   DATA     BYTE      P4
*SFR* 000000D3H   DATA     BYTE      P4_IE
*SFR* 000000D4H   DATA     BYTE      P4_IF
*SFR* 000000E9H   DATA     BYTE      P4_OE
      0200030BH   XDATA    INT       P_target_hall
      0200032BH   XDATA    FLOAT     P_target_rpm
*SFR* 00000087H   DATA     BYTE      PCON
*DEL*:00000000H   CODE     ---       PI3_Init
*SFR* 000000F9H   DATA     BYTE      PI_CR
      01002AF8H   CODE     ---       PI_Init
      020002EFH   XDATA    ---       PID_cfg_Position
      0200030DH   XDATA    ---       PID_cfg_Speed
      02000329H   XDATA    BYTE      Pos_end_flag
*SFR* 000000D0H   DATA     BYTE      PSW
*DEL*:00000000H   CODE     ---       PWMDutyCal
*SFR* 00000098H.2 DATA     BIT       RB8
      020001EDH   XDATA    ---       RearVertical
      020001E9H   XDATA    ---       Recline
*SFR* 00000098H.4 DATA     BIT       REN
      0200028BH   XDATA    ---       Restart
      020003DBH   XDATA    WORD      resultA
      020003DDH   XDATA    WORD      resultB
      020003DFH   XDATA    WORD      resultC
*SFR* 00000098H.0 DATA     BIT       RI
*SFR* 000000D0H.3 DATA     BIT       RS0
*SFR* 000000D0H.4 DATA     BIT       RS1
LX51 LINKER/LOCATER V4.66.87.0                                                        06/22/2026  16:51:37  PAGE 18


*SFR* 000000C9H   DATA     BYTE      RST_SR
*SFR* 000000A8H.6 DATA     BIT       RTCIE
*DEL*:00000000H   CODE     ---       RunMode
*DEL*:00000000H   CODE     ---       Save_DATA
*DEL*:00000000H   CODE     ---       SaveFault_Flash
*DEL*:00000000H   CODE     ---       SeatContrl
      020001E0H   XDATA    ---       SeatCtl
      020001D1H   XDATA    ---       SeatLinData
      01002C76H   CODE     ---       SectorThetaCalculation
*DEL*:00000000H   CODE     ---       SetDbgMod_DMA
      020001EBH   XDATA    ---       Shoulder
*DEL*:00000000H   CODE     ---       SleepMode
*DEL*:00000000H   CODE     ---       SleepMode_Init
*SFR* 00000098H.5 DATA     BIT       SM2
*DEL*:00000000H   CODE     ---       SoftPointDeal
      01000B64H   CODE     ---       Speed_response
*DEL*:00000000H   CODE     ---       SPI_Init
      020003D1H   XDATA    ---       spidebug
*SFR* 000000A8H.3 DATA     BIT       SPIIE
*DEL*:00000000H   CODE     ---       StateFeedback
*DEL*:00000000H   CODE     ---       Studymode
      02000091H   XDATA    LONG      Sum_IQ
      020000A2H   XDATA    LONG      Sum_IQ_Compare
      0200008DH   XDATA    LONG      Sum_Time
      0200009AH   XDATA    LONG      Sum_Time_Compare
      0200009EH   XDATA    LONG      SumPre_IQ
      02000096H   XDATA    LONG      SumPre_Time
*DEL*:00000000H   CODE     ---       Sync_Error_Check
      010029E2H   CODE     ---       SYStick_INT
*DEL*:00000000H   CODE     ---       TargetRef_Process
*SFR* 00000098H.3 DATA     BIT       TB8
*SFR* 00000088H   DATA     BYTE      TCON
      010023CBH   CODE     ---       ThetaCalculation
*SFR* 00000098H.1 DATA     BIT       TI
      01000D11H   CODE     ---       TickCycle_1ms
      0100203AH   CODE     ---       TIM1_HALL_Init
      010022D5H   CODE     ---       TIM1_INT
*SFR* 000000AEH   DATA     WORD      TIM2__ARR
*SFR* 000000AAH   DATA     WORD      TIM2__CNTR
*SFR* 000000ACH   DATA     WORD      TIM2__DR
*SFR* 000000A1H   DATA     BYTE      TIM2_CR0
*SFR* 000000A9H   DATA     BYTE      TIM2_CR1
      01002BBDH   CODE     ---       TIM2_INT
*SFR* 000000A6H   DATA     WORD      TIM3__ARR
*SFR* 000000A2H   DATA     WORD      TIM3__CNTR
*SFR* 000000A4H   DATA     WORD      TIM3__DR
*SFR* 0000009CH   DATA     BYTE      TIM3_CR0
*SFR* 0000009DH   DATA     BYTE      TIM3_CR1
      01002599H   CODE     ---       TIM3_INT
*SFR* 00000096H   DATA     WORD      TIM4__ARR
*SFR* 00000092H   DATA     WORD      TIM4__CNTR
*SFR* 00000094H   DATA     WORD      TIM4__DR
*SFR* 0000009EH   DATA     BYTE      TIM4_CR0
*SFR* 0000009FH   DATA     BYTE      TIM4_CR1
*DEL*:00000000H   CODE     ---       TIM4_Init_RF
*DEL*:00000000H   CODE     ---       Time2_Hall_Init
*DEL*:00000000H   CODE     ---       Timer1_Init
*DEL*:00000000H   CODE     ---       Timer2_Init
*DEL*:00000000H   CODE     ---       Timer3_Init
*DEL*:00000000H   CODE     ---       TSD_Gain
*DEL*:00000000H   CODE     ---       TSD_Init
*SFR* 000000A8H.1 DATA     BIT       TSDIE
*SFR* 00000088H.5 DATA     BIT       TSDIF
*DEL*:00000000H   CODE     ---       UART1_Init
*DEL*:00000000H   CODE     ---       UART2_Init
LX51 LINKER/LOCATER V4.66.87.0                                                        06/22/2026  16:51:37  PAGE 19


      020003B9H   XDATA    ---       ucaLinBuff
      01001C02H   CODE     ---       UpdateHallFRAndLossStatus
      01002810H   CODE     ---       UpdateHallMode
      020003CFH   XDATA    CHAR      User_cg_caVer
*SFR* 000000D8H   DATA     BYTE      UT2_CR
*SFR* 00000089H   DATA     BYTE      UT2_DR
*SFR* 000000D8H.6 DATA     BIT       UT2MOD0
*SFR* 000000D8H.7 DATA     BIT       UT2MOD1
*SFR* 000000D8H.2 DATA     BIT       UT2RB8
*SFR* 000000D8H.4 DATA     BIT       UT2REN
*SFR* 000000D8H.0 DATA     BIT       UT2RI
*SFR* 000000D8H.5 DATA     BIT       UT2SM2
*SFR* 000000D8H.3 DATA     BIT       UT2TB8
*SFR* 000000D8H.1 DATA     BIT       UT2TI
*SFR* 0000009AH   DATA     WORD      UT_BAUD
*SFR* 00000098H   DATA     BYTE      UT_CR
*SFR* 00000099H   DATA     BYTE      UT_DR
*SFR* 00000098H.6 DATA     BIT       UT_MOD0
*SFR* 00000098H.7 DATA     BIT       UT_MOD1
      01001F13H   CODE     ---       VariablesPreInit
      01002B22H   CODE     ---       VREFConfigInit
      020001C7H   XDATA    INT       VSP
*DEL*:00000000H   CODE     ---       VSPSample



SYMBOL TABLE OF MODULE:  .\Output\Fortior_FOC_FU68x6 (MAIN)

      VALUE       REP       CLASS    TYPE      SYMBOL NAME
      ====================================================
      ---         MODULE    ---      ---       MAIN
      0200032FH   PUBLIC    XDATA    INT       Hall_delta_acc
      00000019H   PUBLIC    DATA     BYTE      g_1mTick
      0200032BH   PUBLIC    XDATA    FLOAT     P_target_rpm
      00000018H   PUBLIC    DATA     BYTE      g_100mTick
      0200032AH   PUBLIC    XDATA    BYTE      NAD
      02000329H   PUBLIC    XDATA    BYTE      Pos_end_flag
      0200030DH   PUBLIC    XDATA    ---       PID_cfg_Speed
      0200030BH   PUBLIC    XDATA    INT       P_target_hall
      020002EFH   PUBLIC    XDATA    ---       PID_cfg_Position
      00000017H   PUBLIC    DATA     BYTE      g_50mTick
      00000016H   PUBLIC    DATA     BYTE      g_10mTick
      01002B4BH   PUBLIC    CODE     ---       Motor_ctrl_main
      01001CABH   PUBLIC    CODE     ---       main
      01002A44H   PUBLIC    CODE     ---       _Motor_position_set
      01002B22H   PUBLIC    CODE     ---       VREFConfigInit
      000000B8H.3 SFRSYM    DATA     BIT       GP43
      000000B0H.4 SFRSYM    DATA     BIT       GP34
      000000A0H.5 SFRSYM    DATA     BIT       GP25
      00000090H.6 SFRSYM    DATA     BIT       GP16
      00000080H.7 SFRSYM    DATA     BIT       GP07
      00000088H.1 SFRSYM    DATA     BIT       IT01
      00000088H.3 SFRSYM    DATA     BIT       IT10
      000000B8H.4 SFRSYM    DATA     BIT       GP44
      000000B0H.5 SFRSYM    DATA     BIT       GP35
      000000A0H.6 SFRSYM    DATA     BIT       GP26
      00000090H.7 SFRSYM    DATA     BIT       GP17
      00000080H   SFRSYM    DATA     BYTE      P0
      00000088H.4 SFRSYM    DATA     BIT       IT11
      000000C9H   SFRSYM    DATA     BYTE      RST_SR
      000000D9H   SFRSYM    DATA     BYTE      EVT_FILT
      000000B8H.5 SFRSYM    DATA     BIT       GP45
      000000B0H.6 SFRSYM    DATA     BIT       GP36
      000000A0H.7 SFRSYM    DATA     BIT       GP27
      00000090H   SFRSYM    DATA     BYTE      P1
LX51 LINKER/LOCATER V4.66.87.0                                                        06/22/2026  16:51:37  PAGE 20


      000000BDH   SFRSYM    DATA     BYTE      LIN_SIZE
      000000B8H.6 SFRSYM    DATA     BIT       GP46
      000000B0H.7 SFRSYM    DATA     BIT       GP37
      000000A0H   SFRSYM    DATA     BYTE      P2
      000000B0H   SFRSYM    DATA     BYTE      P3
      000000B8H   SFRSYM    DATA     BYTE      P4
      000000CEH   SFRSYM    DATA     BYTE      CAN_ALC
      000000D0H.6 SFRSYM    DATA     BIT       AC
      000000A8H.7 SFRSYM    DATA     BIT       EA
      000000D5H   SFRSYM    DATA     BYTE      CMP_CR0
      000000D6H   SFRSYM    DATA     BYTE      CMP_CR1
      000000DAH   SFRSYM    DATA     BYTE      CMP_CR2
      000000DCH   SFRSYM    DATA     BYTE      CMP_CR3
      000000F8H.0 SFRSYM    DATA     BIT       OISUH
      000000E1H   SFRSYM    DATA     BYTE      CMP_CR4
      000000F8H.2 SFRSYM    DATA     BIT       OISVH
      000000F8H.4 SFRSYM    DATA     BIT       OISWH
      000000F8H.1 SFRSYM    DATA     BIT       OISUL
      000000DFH   SFRSYM    DATA     BYTE      CAN_REC
      000000A8H   SFRSYM    DATA     BYTE      IE
      000000F8H.3 SFRSYM    DATA     BIT       OISVL
      000000F9H   SFRSYM    DATA     BYTE      PI_CR
      000000F8H.5 SFRSYM    DATA     BIT       OISWL
      000000DEH   SFRSYM    DATA     BYTE      CAN_TEC
      000000B4H   SFRSYM    DATA     BYTE      CAN_IER
      000000B6H   SFRSYM    DATA     BYTE      CAN_IFR
      000000AAH   SFRSYM    DATA     WORD      TIM2__CNTR
      000000DDH   SFRSYM    DATA     BYTE      CAN_LIM
      000000A2H   SFRSYM    DATA     WORD      TIM3__CNTR
      000000F1H   SFRSYM    DATA     BYTE      OSC_CFG
      000000E2H   SFRSYM    DATA     BYTE      HALL_CR
      00000092H   SFRSYM    DATA     WORD      TIM4__CNTR
      00000098H.0 SFRSYM    DATA     BIT       RI
      00000098H.6 SFRSYM    DATA     BIT       UT_MOD0
      00000098H.7 SFRSYM    DATA     BIT       UT_MOD1
      000000D0H.7 SFRSYM    DATA     BIT       CY
      00000098H.1 SFRSYM    DATA     BIT       TI
      00000084H   SFRSYM    DATA     BYTE      FLA_KEY
      000000CFH   SFRSYM    DATA     BYTE      CAN_ESR
      00000098H   SFRSYM    DATA     BYTE      UT_CR
      00000099H   SFRSYM    DATA     BYTE      UT_DR
      000000D0H.2 SFRSYM    DATA     BIT       OV
      0000009AH   SFRSYM    DATA     WORD      UT_BAUD
      000000D8H.2 SFRSYM    DATA     BIT       UT2RB8
      000000D8H.3 SFRSYM    DATA     BIT       UT2TB8
      000000BBH   SFRSYM    DATA     BYTE      LIN_CSR
      000000D8H.5 SFRSYM    DATA     BIT       UT2SM2
      00000087H   SFRSYM    DATA     BYTE      PCON
      00000088H   SFRSYM    DATA     BYTE      TCON
      00000082H   SFRSYM    DATA     WORD      DPTR
      00000088H.2 SFRSYM    DATA     BIT       IF0
      000000D8H.4 SFRSYM    DATA     BIT       UT2REN
      000000AEH   SFRSYM    DATA     WORD      TIM2__ARR
      000000A1H   SFRSYM    DATA     BYTE      TIM2_CR0
      000000A6H   SFRSYM    DATA     WORD      TIM3__ARR
      0000009CH   SFRSYM    DATA     BYTE      TIM3_CR0
      000000A9H   SFRSYM    DATA     BYTE      TIM2_CR1
      00000096H   SFRSYM    DATA     WORD      TIM4__ARR
      0000009EH   SFRSYM    DATA     BYTE      TIM4_CR0
      0000009DH   SFRSYM    DATA     BYTE      TIM3_CR1
      000000C4H   SFRSYM    DATA     BYTE      CAN_FIR0
      000000F8H   SFRSYM    DATA     BYTE      DRV_OUT
      0000009FH   SFRSYM    DATA     BYTE      TIM4_CR1
      000000C5H   SFRSYM    DATA     BYTE      CAN_FIR1
      000000C6H   SFRSYM    DATA     BYTE      CAN_FIR2
LX51 LINKER/LOCATER V4.66.87.0                                                        06/22/2026  16:51:37  PAGE 21


      000000E0H   SFRSYM    DATA     BYTE      ACC
      000000DBH   SFRSYM    DATA     BYTE      LVSR
      000000C7H   SFRSYM    DATA     BYTE      CAN_FIR3
      000000A8H.4 SFRSYM    DATA     BIT       ES0
      00000085H   SFRSYM    DATA     BYTE      FLA_CR
      000000CAH   SFRSYM    DATA     BYTE      CAN_FMR0
      0000008AH   SFRSYM    DATA     BYTE      IP0
      000000CBH   SFRSYM    DATA     BYTE      CAN_FMR1
      0000008BH   SFRSYM    DATA     BYTE      IP1
      000000CCH   SFRSYM    DATA     BYTE      CAN_FMR2
      0000008CH   SFRSYM    DATA     BYTE      IP2
      000000CDH   SFRSYM    DATA     BYTE      CAN_FMR3
      000000B7H   SFRSYM    DATA     BYTE      CAN_BTR0
      00000098H.2 SFRSYM    DATA     BIT       RB8
      0000008DH   SFRSYM    DATA     BYTE      IP3
      000000C2H   SFRSYM    DATA     BYTE      CAN_BTR1
      000000A8H.0 SFRSYM    DATA     BIT       EX0
      000000C3H   SFRSYM    DATA     BYTE      CAN_BTR2
      00000098H.3 SFRSYM    DATA     BIT       TB8
      000000A8H.2 SFRSYM    DATA     BIT       EX1
      000000D0H.0 SFRSYM    DATA     BIT       P
      000000BCH   SFRSYM    DATA     BYTE      LIN_ID
      000000D8H   SFRSYM    DATA     BYTE      UT2_CR
      00000089H   SFRSYM    DATA     BYTE      UT2_DR
      00000098H.5 SFRSYM    DATA     BIT       SM2
      000000D0H.3 SFRSYM    DATA     BIT       RS0
      000000D0H.4 SFRSYM    DATA     BIT       RS1
      000000B3H   SFRSYM    DATA     BYTE      CAN_SR
      000000B9H   SFRSYM    DATA     BYTE      LIN_CR
      000000C1H   SFRSYM    DATA     BYTE      MDU_CR
      000000F8H.7 SFRSYM    DATA     BIT       MOE
      000000BEH   SFRSYM    DATA     WORD      LIN_BAUD
      000000A8H.5 SFRSYM    DATA     BIT       MCDIE
      00000088H.6 SFRSYM    DATA     BIT       MCDIF
      00000098H.4 SFRSYM    DATA     BIT       REN
      000000D7H   SFRSYM    DATA     BYTE      CMP_SR
      000000BAH   SFRSYM    DATA     BYTE      LIN_SR
      000000D8H.6 SFRSYM    DATA     BIT       UT2MOD0
      000000D8H.7 SFRSYM    DATA     BIT       UT2MOD1
      000000D1H   SFRSYM    DATA     BYTE      P1_IE
      000000D2H   SFRSYM    DATA     BYTE      P1_IF
      000000D3H   SFRSYM    DATA     BYTE      P4_IE
      000000D4H   SFRSYM    DATA     BYTE      P4_IF
      000000ACH   SFRSYM    DATA     WORD      TIM2__DR
      000000FCH   SFRSYM    DATA     BYTE      P0_OE
      000000A4H   SFRSYM    DATA     WORD      TIM3__DR
      000000FDH   SFRSYM    DATA     BYTE      P1_OE
      00000094H   SFRSYM    DATA     WORD      TIM4__DR
      000000D0H.5 SFRSYM    DATA     BIT       F0
      000000FEH   SFRSYM    DATA     BYTE      P2_OE
      000000D0H.1 SFRSYM    DATA     BIT       F1
      000000FFH   SFRSYM    DATA     BYTE      P3_OE
      00000080H.0 SFRSYM    DATA     BIT       GP00
      000000D8H.0 SFRSYM    DATA     BIT       UT2RI
      000000E9H   SFRSYM    DATA     BYTE      P4_OE
      00000090H.0 SFRSYM    DATA     BIT       GP10
      00000080H.1 SFRSYM    DATA     BIT       GP01
      000000B1H   SFRSYM    DATA     BYTE      CAN_CR0
      000000A8H.6 SFRSYM    DATA     BIT       RTCIE
      000000A0H.0 SFRSYM    DATA     BIT       GP20
      00000090H.1 SFRSYM    DATA     BIT       GP11
      00000080H.2 SFRSYM    DATA     BIT       GP02
      000000B2H   SFRSYM    DATA     BYTE      CAN_CR1
      000000D8H.1 SFRSYM    DATA     BIT       UT2TI
      000000B0H.0 SFRSYM    DATA     BIT       GP30
LX51 LINKER/LOCATER V4.66.87.0                                                        06/22/2026  16:51:37  PAGE 22


      000000A0H.1 SFRSYM    DATA     BIT       GP21
      00000090H.2 SFRSYM    DATA     BIT       GP12
      00000080H.3 SFRSYM    DATA     BIT       GP03
      000000B5H   SFRSYM    DATA     BYTE      CAN_CR2
      000000A8H.1 SFRSYM    DATA     BIT       TSDIE
      000000D0H   SFRSYM    DATA     BYTE      PSW
      000000B0H.1 SFRSYM    DATA     BIT       GP31
      000000A0H.2 SFRSYM    DATA     BIT       GP22
      00000090H.3 SFRSYM    DATA     BIT       GP13
      00000080H.4 SFRSYM    DATA     BIT       GP04
      000000A8H.3 SFRSYM    DATA     BIT       SPIIE
      00000088H.5 SFRSYM    DATA     BIT       TSDIF
      000000B8H.1 SFRSYM    DATA     BIT       GP41
      000000B0H.2 SFRSYM    DATA     BIT       GP32
      000000A0H.3 SFRSYM    DATA     BIT       GP23
      00000090H.4 SFRSYM    DATA     BIT       GP14
      00000080H.5 SFRSYM    DATA     BIT       GP05
      000000B8H.2 SFRSYM    DATA     BIT       GP42
      000000B0H.3 SFRSYM    DATA     BIT       GP33
      000000A0H.4 SFRSYM    DATA     BIT       GP24
      00000090H.5 SFRSYM    DATA     BIT       GP15
      00000080H.6 SFRSYM    DATA     BIT       GP06
      00000088H.0 SFRSYM    DATA     BIT       IT00
      01002979H   SYMBOL    CODE     ---       HardwareInit
      0100252AH   SYMBOL    CODE     ---       SoftwareInit

      01002C53H   BLOCK     CODE     ---       LVL=0
      ---         BLOCKEND  ---      ---       LVL=0

      01002979H   BLOCK     CODE     ---       LVL=0
      01002979H   LINE      CODE     ---       #68
      01002979H   LINE      CODE     ---       #69
      01002979H   LINE      CODE     ---       #75
      0100297CH   LINE      CODE     ---       #77
      0100297FH   LINE      CODE     ---       #78
      01002986H   LINE      CODE     ---       #79
      01002989H   LINE      CODE     ---       #81
      0100298CH   LINE      CODE     ---       #82
      0100298FH   LINE      CODE     ---       #85
      01002992H   LINE      CODE     ---       #86
      01002995H   LINE      CODE     ---       #91
      01002998H   LINE      CODE     ---       #93
      0100299BH   LINE      CODE     ---       #96
      0100299EH   LINE      CODE     ---       #98
      010029A1H   LINE      CODE     ---       #99
      010029A4H   LINE      CODE     ---       #100
      010029ABH   LINE      CODE     ---       #101
      010029ADH   LINE      CODE     ---       #102
      ---         BLOCKEND  ---      ---       LVL=0

      0100252AH   BLOCK     CODE     ---       LVL=0
      0100252AH   LINE      CODE     ---       #108
      0100252AH   LINE      CODE     ---       #109
      0100252AH   LINE      CODE     ---       #110
      01002533H   LINE      CODE     ---       #111
      0100253CH   LINE      CODE     ---       #112
      01002545H   LINE      CODE     ---       #113
      0100255EH   LINE      CODE     ---       #115
      01002561H   LINE      CODE     ---       #116
      01002564H   LINE      CODE     ---       #117
      01002566H   LINE      CODE     ---       #120
      01002570H   LINE      CODE     ---       #121
      0100257AH   LINE      CODE     ---       #122
      01002584H   LINE      CODE     ---       #123
      0100258EH   LINE      CODE     ---       #124
LX51 LINKER/LOCATER V4.66.87.0                                                        06/22/2026  16:51:37  PAGE 23


      01002598H   LINE      CODE     ---       #132
      ---         BLOCKEND  ---      ---       LVL=0

      01002B22H   BLOCK     CODE     ---       LVL=0
      01002B22H   LINE      CODE     ---       #138
      01002B22H   LINE      CODE     ---       #139
      01002B22H   LINE      CODE     ---       #152
      01002B22H   LINE      CODE     ---       #153
      01002B29H   LINE      CODE     ---       #154
      01002B2DH   LINE      CODE     ---       #155
      01002B2DH   LINE      CODE     ---       #175
      01002B2DH   LINE      CODE     ---       #176
      01002B31H   LINE      CODE     ---       #177
      01002B35H   LINE      CODE     ---       #178
      01002B35H   LINE      CODE     ---       #185
      01002B3CH   LINE      CODE     ---       #186
      01002B3FH   LINE      CODE     ---       #189
      01002B43H   LINE      CODE     ---       #191
      01002B4AH   LINE      CODE     ---       #193
      ---         BLOCKEND  ---      ---       LVL=0

      01002A44H   BLOCK     CODE     ---       LVL=0
      0200033FH   SYMBOL    XDATA    INT       Hall_pos
      00000004H   SYMBOL    DATA     WORD      speed_rpm
      01002A44H   LINE      CODE     ---       #201
      01002A4CH   LINE      CODE     ---       #202
      01002A4CH   LINE      CODE     ---       #203
      01002A5AH   LINE      CODE     ---       #204
      01002A69H   LINE      CODE     ---       #205
      01002A6AH   LINE      CODE     ---       #207
      01002A6EH   LINE      CODE     ---       #208
      01002A70H   LINE      CODE     ---       #209
      ---         BLOCKEND  ---      ---       LVL=0

      01001CABH   BLOCK     CODE     ---       LVL=0
      01001CABH   BLOCK     CODE     NEAR LAB  LVL=1
      00000006H   SYMBOL    DATA     WORD      PowerUpCnt
      0200033EH   SYMBOL    XDATA    BYTE      Run_Flag
      ---         BLOCKEND  ---      ---       LVL=1
      01001CABH   LINE      CODE     ---       #228
      01001CABH   LINE      CODE     ---       #229
      01001CABH   LINE      CODE     ---       #230
      01001CAEH   LINE      CODE     ---       #231
      01001CB2H   LINE      CODE     ---       #234
      01001CBDH   LINE      CODE     ---       #237
      01001CC0H   LINE      CODE     ---       #239
      01001CC3H   LINE      CODE     ---       #241
      01001CEFH   LINE      CODE     ---       #244
      01001CF5H   LINE      CODE     ---       #245
      01001CF8H   LINE      CODE     ---       #247
      01001CFFH   LINE      CODE     ---       #248
      01001CFFH   LINE      CODE     ---       #249
      01001D04H   LINE      CODE     ---       #250
      01001D04H   LINE      CODE     ---       #252
      01001D04H   LINE      CODE     ---       #253
      01001D04H   LINE      CODE     ---       #255
      01001D0AH   LINE      CODE     ---       #256
      01001D0AH   LINE      CODE     ---       #257
      01001D0DH   LINE      CODE     ---       #258
      01001D0FH   LINE      CODE     ---       #260
      01001D0FH   LINE      CODE     ---       #262
      01001D12H   LINE      CODE     ---       #263
      01001D12H   LINE      CODE     ---       #265
      01001D16H   LINE      CODE     ---       #266
      01001D16H   LINE      CODE     ---       #270
LX51 LINKER/LOCATER V4.66.87.0                                                        06/22/2026  16:51:37  PAGE 24


      01001D19H   LINE      CODE     ---       #272
      01001D1CH   LINE      CODE     ---       #274
      01001D1FH   LINE      CODE     ---       #275
      01001D1FH   LINE      CODE     ---       #277
      01001D23H   LINE      CODE     ---       #278
      01001D23H   LINE      CODE     ---       #281
      01001D26H   LINE      CODE     ---       #282
      01001D29H   LINE      CODE     ---       #284
      01001D2CH   LINE      CODE     ---       #285
      01001D2CH   LINE      CODE     ---       #287
      01001D30H   LINE      CODE     ---       #288
      01001D30H   LINE      CODE     ---       #289
      01001D33H   LINE      CODE     ---       #291
      01001D36H   LINE      CODE     ---       #292
      01001D36H   LINE      CODE     ---       #294
      01001D3AH   LINE      CODE     ---       #295
      01001D3AH   LINE      CODE     ---       #296
      01001D41H   LINE      CODE     ---       #298
      01001D44H   LINE      CODE     ---       #299
      01001D44H   LINE      CODE     ---       #300
      ---         BLOCKEND  ---      ---       LVL=0

      01002B4BH   BLOCK     CODE     ---       LVL=0
      01002B4BH   BLOCK     CODE     NEAR LAB  LVL=1
      020002EDH   SYMBOL    XDATA    WORD      cnt_1
      ---         BLOCKEND  ---      ---       LVL=1
      01002B4BH   LINE      CODE     ---       #303
      01002B4BH   LINE      CODE     ---       #304
      01002B4BH   LINE      CODE     ---       #307
      01002B55H   LINE      CODE     ---       #308
      01002B64H   LINE      CODE     ---       #309
      01002B64H   LINE      CODE     ---       #310
      01002B68H   LINE      CODE     ---       #311
      01002B73H   LINE      CODE     ---       #314
      01002B73H   LINE      CODE     ---       #328
      ---         BLOCKEND  ---      ---       LVL=0

      ---         MODULE    ---      ---       ADDFUNCTION
      020001C7H   PUBLIC    XDATA    INT       VSP
      00000020H.0 PUBLIC    BIT      BIT       isCtrlPowOn
      020001B6H   PUBLIC    XDATA    ---       mcPwmInput
      020001A2H   PUBLIC    XDATA    ---       Motor_DATA
      0200019BH   PUBLIC    XDATA    ---       debug_ONOFFTest
      02000157H   PUBLIC    XDATA    ---       mcFocCtrl
      02000149H   PUBLIC    XDATA    ---       mcRefRamp
      01000D11H   PUBLIC    CODE     ---       TickCycle_1ms
      01000B64H   PUBLIC    CODE     ---       Speed_response
      0200034BH   PUBLIC    XDATA    BYTE      ?_PID_Output?BYTE
      01001372H   PUBLIC    CODE     ---       _PID_Output
      000000B8H.3 SFRSYM    DATA     BIT       GP43
      000000B0H.4 SFRSYM    DATA     BIT       GP34
      000000A0H.5 SFRSYM    DATA     BIT       GP25
      00000090H.6 SFRSYM    DATA     BIT       GP16
      00000080H.7 SFRSYM    DATA     BIT       GP07
      00000088H.1 SFRSYM    DATA     BIT       IT01
      00000088H.3 SFRSYM    DATA     BIT       IT10
      000000B8H.4 SFRSYM    DATA     BIT       GP44
      000000B0H.5 SFRSYM    DATA     BIT       GP35
      000000A0H.6 SFRSYM    DATA     BIT       GP26
      00000090H.7 SFRSYM    DATA     BIT       GP17
      00000080H   SFRSYM    DATA     BYTE      P0
      00000088H.4 SFRSYM    DATA     BIT       IT11
      000000C9H   SFRSYM    DATA     BYTE      RST_SR
      000000D9H   SFRSYM    DATA     BYTE      EVT_FILT
      000000B8H.5 SFRSYM    DATA     BIT       GP45
LX51 LINKER/LOCATER V4.66.87.0                                                        06/22/2026  16:51:37  PAGE 25


      000000B0H.6 SFRSYM    DATA     BIT       GP36
      000000A0H.7 SFRSYM    DATA     BIT       GP27
      00000090H   SFRSYM    DATA     BYTE      P1
      000000BDH   SFRSYM    DATA     BYTE      LIN_SIZE
      000000B8H.6 SFRSYM    DATA     BIT       GP46
      000000B0H.7 SFRSYM    DATA     BIT       GP37
      000000A0H   SFRSYM    DATA     BYTE      P2
      000000B0H   SFRSYM    DATA     BYTE      P3
      000000B8H   SFRSYM    DATA     BYTE      P4
      000000CEH   SFRSYM    DATA     BYTE      CAN_ALC
      000000D0H.6 SFRSYM    DATA     BIT       AC
      000000A8H.7 SFRSYM    DATA     BIT       EA
      000000D5H   SFRSYM    DATA     BYTE      CMP_CR0
      000000D6H   SFRSYM    DATA     BYTE      CMP_CR1
      000000DAH   SFRSYM    DATA     BYTE      CMP_CR2
      000000DCH   SFRSYM    DATA     BYTE      CMP_CR3
      000000F8H.0 SFRSYM    DATA     BIT       OISUH
      000000E1H   SFRSYM    DATA     BYTE      CMP_CR4
      000000F8H.2 SFRSYM    DATA     BIT       OISVH
      000000F8H.4 SFRSYM    DATA     BIT       OISWH
      000000F8H.1 SFRSYM    DATA     BIT       OISUL
      000000DFH   SFRSYM    DATA     BYTE      CAN_REC
      000000A8H   SFRSYM    DATA     BYTE      IE
      000000F8H.3 SFRSYM    DATA     BIT       OISVL
      000000F9H   SFRSYM    DATA     BYTE      PI_CR
      000000F8H.5 SFRSYM    DATA     BIT       OISWL
      000000DEH   SFRSYM    DATA     BYTE      CAN_TEC
      000000B4H   SFRSYM    DATA     BYTE      CAN_IER
      000000B6H   SFRSYM    DATA     BYTE      CAN_IFR
      000000AAH   SFRSYM    DATA     WORD      TIM2__CNTR
      000000DDH   SFRSYM    DATA     BYTE      CAN_LIM
      000000A2H   SFRSYM    DATA     WORD      TIM3__CNTR
      000000F1H   SFRSYM    DATA     BYTE      OSC_CFG
      000000E2H   SFRSYM    DATA     BYTE      HALL_CR
      00000092H   SFRSYM    DATA     WORD      TIM4__CNTR
      00000098H.0 SFRSYM    DATA     BIT       RI
      00000098H.6 SFRSYM    DATA     BIT       UT_MOD0
      00000098H.7 SFRSYM    DATA     BIT       UT_MOD1
      000000D0H.7 SFRSYM    DATA     BIT       CY
      00000098H.1 SFRSYM    DATA     BIT       TI
      00000084H   SFRSYM    DATA     BYTE      FLA_KEY
      000000CFH   SFRSYM    DATA     BYTE      CAN_ESR
      00000098H   SFRSYM    DATA     BYTE      UT_CR
      00000099H   SFRSYM    DATA     BYTE      UT_DR
      000000D0H.2 SFRSYM    DATA     BIT       OV
      0000009AH   SFRSYM    DATA     WORD      UT_BAUD
      000000D8H.2 SFRSYM    DATA     BIT       UT2RB8
      000000D8H.3 SFRSYM    DATA     BIT       UT2TB8
      000000BBH   SFRSYM    DATA     BYTE      LIN_CSR
      000000D8H.5 SFRSYM    DATA     BIT       UT2SM2
      00000087H   SFRSYM    DATA     BYTE      PCON
      00000088H   SFRSYM    DATA     BYTE      TCON
      00000082H   SFRSYM    DATA     WORD      DPTR
      00000088H.2 SFRSYM    DATA     BIT       IF0
      000000D8H.4 SFRSYM    DATA     BIT       UT2REN
      000000AEH   SFRSYM    DATA     WORD      TIM2__ARR
      000000A1H   SFRSYM    DATA     BYTE      TIM2_CR0
      000000A6H   SFRSYM    DATA     WORD      TIM3__ARR
      0000009CH   SFRSYM    DATA     BYTE      TIM3_CR0
      000000A9H   SFRSYM    DATA     BYTE      TIM2_CR1
      00000096H   SFRSYM    DATA     WORD      TIM4__ARR
      0000009EH   SFRSYM    DATA     BYTE      TIM4_CR0
      0000009DH   SFRSYM    DATA     BYTE      TIM3_CR1
      000000C4H   SFRSYM    DATA     BYTE      CAN_FIR0
      000000F8H   SFRSYM    DATA     BYTE      DRV_OUT
LX51 LINKER/LOCATER V4.66.87.0                                                        06/22/2026  16:51:37  PAGE 26


      0000009FH   SFRSYM    DATA     BYTE      TIM4_CR1
      000000C5H   SFRSYM    DATA     BYTE      CAN_FIR1
      000000C6H   SFRSYM    DATA     BYTE      CAN_FIR2
      000000E0H   SFRSYM    DATA     BYTE      ACC
      000000DBH   SFRSYM    DATA     BYTE      LVSR
      000000C7H   SFRSYM    DATA     BYTE      CAN_FIR3
      000000A8H.4 SFRSYM    DATA     BIT       ES0
      00000085H   SFRSYM    DATA     BYTE      FLA_CR
      000000CAH   SFRSYM    DATA     BYTE      CAN_FMR0
      0000008AH   SFRSYM    DATA     BYTE      IP0
      000000CBH   SFRSYM    DATA     BYTE      CAN_FMR1
      0000008BH   SFRSYM    DATA     BYTE      IP1
      000000CCH   SFRSYM    DATA     BYTE      CAN_FMR2
      0000008CH   SFRSYM    DATA     BYTE      IP2
      000000CDH   SFRSYM    DATA     BYTE      CAN_FMR3
      000000B7H   SFRSYM    DATA     BYTE      CAN_BTR0
      00000098H.2 SFRSYM    DATA     BIT       RB8
      0000008DH   SFRSYM    DATA     BYTE      IP3
      000000C2H   SFRSYM    DATA     BYTE      CAN_BTR1
      000000A8H.0 SFRSYM    DATA     BIT       EX0
      000000C3H   SFRSYM    DATA     BYTE      CAN_BTR2
      00000098H.3 SFRSYM    DATA     BIT       TB8
      000000A8H.2 SFRSYM    DATA     BIT       EX1
      000000D0H.0 SFRSYM    DATA     BIT       P
      000000BCH   SFRSYM    DATA     BYTE      LIN_ID
      000000D8H   SFRSYM    DATA     BYTE      UT2_CR
      00000089H   SFRSYM    DATA     BYTE      UT2_DR
      00000098H.5 SFRSYM    DATA     BIT       SM2
      000000D0H.3 SFRSYM    DATA     BIT       RS0
      000000D0H.4 SFRSYM    DATA     BIT       RS1
      000000B3H   SFRSYM    DATA     BYTE      CAN_SR
      000000B9H   SFRSYM    DATA     BYTE      LIN_CR
      000000C1H   SFRSYM    DATA     BYTE      MDU_CR
      000000F8H.7 SFRSYM    DATA     BIT       MOE
      000000BEH   SFRSYM    DATA     WORD      LIN_BAUD
      000000A8H.5 SFRSYM    DATA     BIT       MCDIE
      00000088H.6 SFRSYM    DATA     BIT       MCDIF
      00000098H.4 SFRSYM    DATA     BIT       REN
      000000D7H   SFRSYM    DATA     BYTE      CMP_SR
      000000BAH   SFRSYM    DATA     BYTE      LIN_SR
      000000D8H.6 SFRSYM    DATA     BIT       UT2MOD0
      000000D8H.7 SFRSYM    DATA     BIT       UT2MOD1
      000000D1H   SFRSYM    DATA     BYTE      P1_IE
      000000D2H   SFRSYM    DATA     BYTE      P1_IF
      000000D3H   SFRSYM    DATA     BYTE      P4_IE
      000000D4H   SFRSYM    DATA     BYTE      P4_IF
      000000ACH   SFRSYM    DATA     WORD      TIM2__DR
      000000FCH   SFRSYM    DATA     BYTE      P0_OE
      000000A4H   SFRSYM    DATA     WORD      TIM3__DR
      000000FDH   SFRSYM    DATA     BYTE      P1_OE
      00000094H   SFRSYM    DATA     WORD      TIM4__DR
      000000D0H.5 SFRSYM    DATA     BIT       F0
      000000FEH   SFRSYM    DATA     BYTE      P2_OE
      000000D0H.1 SFRSYM    DATA     BIT       F1
      000000FFH   SFRSYM    DATA     BYTE      P3_OE
      00000080H.0 SFRSYM    DATA     BIT       GP00
      000000D8H.0 SFRSYM    DATA     BIT       UT2RI
      000000E9H   SFRSYM    DATA     BYTE      P4_OE
      00000090H.0 SFRSYM    DATA     BIT       GP10
      00000080H.1 SFRSYM    DATA     BIT       GP01
      000000B1H   SFRSYM    DATA     BYTE      CAN_CR0
      000000A8H.6 SFRSYM    DATA     BIT       RTCIE
      000000A0H.0 SFRSYM    DATA     BIT       GP20
      00000090H.1 SFRSYM    DATA     BIT       GP11
      00000080H.2 SFRSYM    DATA     BIT       GP02
LX51 LINKER/LOCATER V4.66.87.0                                                        06/22/2026  16:51:37  PAGE 27


      000000B2H   SFRSYM    DATA     BYTE      CAN_CR1
      000000D8H.1 SFRSYM    DATA     BIT       UT2TI
      000000B0H.0 SFRSYM    DATA     BIT       GP30
      000000A0H.1 SFRSYM    DATA     BIT       GP21
      00000090H.2 SFRSYM    DATA     BIT       GP12
      00000080H.3 SFRSYM    DATA     BIT       GP03
      000000B5H   SFRSYM    DATA     BYTE      CAN_CR2
      000000A8H.1 SFRSYM    DATA     BIT       TSDIE
      000000D0H   SFRSYM    DATA     BYTE      PSW
      000000B0H.1 SFRSYM    DATA     BIT       GP31
      000000A0H.2 SFRSYM    DATA     BIT       GP22
      00000090H.3 SFRSYM    DATA     BIT       GP13
      00000080H.4 SFRSYM    DATA     BIT       GP04
      000000A8H.3 SFRSYM    DATA     BIT       SPIIE
      00000088H.5 SFRSYM    DATA     BIT       TSDIF
      000000B8H.1 SFRSYM    DATA     BIT       GP41
      000000B0H.2 SFRSYM    DATA     BIT       GP32
      000000A0H.3 SFRSYM    DATA     BIT       GP23
      00000090H.4 SFRSYM    DATA     BIT       GP14
      00000080H.5 SFRSYM    DATA     BIT       GP05
      000000B8H.2 SFRSYM    DATA     BIT       GP42
      000000B0H.3 SFRSYM    DATA     BIT       GP33
      000000A0H.4 SFRSYM    DATA     BIT       GP24
      00000090H.5 SFRSYM    DATA     BIT       GP15
      00000080H.6 SFRSYM    DATA     BIT       GP06
      00000088H.0 SFRSYM    DATA     BIT       IT00

      01001B3AH   BLOCK     CODE     ---       LVL=0
      ---         BLOCKEND  ---      ---       LVL=0

      01001372H   BLOCK     CODE     ---       LVL=0
      0200034BH   SYMBOL    XDATA    ---       PID_cfg_t
      00000004H   SYMBOL    DATA     FLOAT     target
      02000352H   SYMBOL    XDATA    FLOAT     input
      01001378H   BLOCK     CODE     NEAR LAB  LVL=1
      02000356H   SYMBOL    XDATA    FLOAT     error
      0200035AH   SYMBOL    XDATA    FLOAT     Ierror
      0200035EH   SYMBOL    XDATA    FLOAT     Derror
      02000362H   SYMBOL    XDATA    FLOAT     temp_P
      02000366H   SYMBOL    XDATA    FLOAT     temp_I
      0200036AH   SYMBOL    XDATA    FLOAT     temp_D
      ---         BLOCKEND  ---      ---       LVL=1
      01001372H   LINE      CODE     ---       #36
      01001378H   LINE      CODE     ---       #37
      01001378H   LINE      CODE     ---       #38
      01001384H   LINE      CODE     ---       #39
      010013ABH   LINE      CODE     ---       #40
      010013C0H   LINE      CODE     ---       #43
      010013D6H   LINE      CODE     ---       #44
      010013F0H   LINE      CODE     ---       #46
      010013FFH   LINE      CODE     ---       #47
      0100140EH   LINE      CODE     ---       #48
      01001420H   LINE      CODE     ---       #50
      0100143EH   LINE      CODE     ---       #51
      0100145EH   LINE      CODE     ---       #53
      0100146DH   LINE      CODE     ---       #54
      01001479H   LINE      CODE     ---       #58
      ---         BLOCKEND  ---      ---       LVL=0
      00000006H   SYMBOL    DATA     INT       value
      02000147H   SYMBOL    XDATA    WORD      dutyTemp
      00000006H   SYMBOL    DATA     INT       ref

      01000B64H   BLOCK     CODE     ---       LVL=0
      01000B64H   BLOCK     CODE     NEAR LAB  LVL=1
      0200033FH   SYMBOL    XDATA    FLOAT     Mspeed_rpm
LX51 LINKER/LOCATER V4.66.87.0                                                        06/22/2026  16:51:37  PAGE 28


      02000343H   SYMBOL    XDATA    FLOAT     S_target_rpm
      02000347H   SYMBOL    XDATA    FLOAT     Iq_target_A
      ---         BLOCKEND  ---      ---       LVL=1
      01000B64H   LINE      CODE     ---       #325
      01000B64H   LINE      CODE     ---       #326
      01000B64H   LINE      CODE     ---       #327
      01000B86H   LINE      CODE     ---       #328
      01000B90H   LINE      CODE     ---       #329
      01000B9AH   LINE      CODE     ---       #332
      01000BA8H   LINE      CODE     ---       #333
      01000BA8H   LINE      CODE     ---       #335
      01000BAEH   LINE      CODE     ---       #336
      01000BB0H   LINE      CODE     ---       #337
      01000BB3H   LINE      CODE     ---       #339
      01000BB3H   LINE      CODE     ---       #341
      01000BCAH   LINE      CODE     ---       #342
      01000BCFH   LINE      CODE     ---       #345
      01000BECH   LINE      CODE     ---       #346
      01000BECH   LINE      CODE     ---       #347
      01000C2CH   LINE      CODE     ---       #348
      01000C2EH   LINE      CODE     ---       #350
      01000C2EH   LINE      CODE     ---       #351
      01000C3AH   LINE      CODE     ---       #352
      01000C3AH   LINE      CODE     ---       #353
      01000C4FH   LINE      CODE     ---       #356
      01000C70H   LINE      CODE     ---       #358
      01000C8EH   LINE      CODE     ---       #359
      01000CAAH   LINE      CODE     ---       #360
      01000CAAH   LINE      CODE     ---       #363
      01000CADH   LINE      CODE     ---       #364
      01000CADH   LINE      CODE     ---       #365
      01000CDBH   LINE      CODE     ---       #366
      01000CDCH   LINE      CODE     ---       #368
      01000CDCH   LINE      CODE     ---       #369
      01000CE3H   LINE      CODE     ---       #370
      01000CEDH   LINE      CODE     ---       #371
      01000CF7H   LINE      CODE     ---       #372
      01000CF7H   LINE      CODE     ---       #373
      ---         BLOCKEND  ---      ---       LVL=0

      01000D11H   BLOCK     CODE     ---       LVL=0
      01000D11H   LINE      CODE     ---       #413
      01000D11H   LINE      CODE     ---       #414
      01000D11H   LINE      CODE     ---       #415
      01000D18H   LINE      CODE     ---       #418
      01000D28H   LINE      CODE     ---       #419
      01000D28H   LINE      CODE     ---       #422
      01000D4DH   LINE      CODE     ---       #423
      01000D6BH   LINE      CODE     ---       #425
      01000D7AH   LINE      CODE     ---       #427
      01000D7FH   LINE      CODE     ---       #428
      01000D7FH   LINE      CODE     ---       #429
      01000D99H   LINE      CODE     ---       #431
      01000DB4H   LINE      CODE     ---       #432
      01000DB6H   LINE      CODE     ---       #434
      01000DB6H   LINE      CODE     ---       #435
      01000DBBH   LINE      CODE     ---       #436
      01000DBBH   LINE      CODE     ---       #437
      01000DBDH   LINE      CODE     ---       #439
      01000DBDH   LINE      CODE     ---       #440
      01000DC4H   LINE      CODE     ---       #441
      01000DCAH   LINE      CODE     ---       #442
      01000DCAH   LINE      CODE     ---       #445
      01000DDFH   LINE      CODE     ---       #446
      01000DF4H   LINE      CODE     ---       #447
LX51 LINKER/LOCATER V4.66.87.0                                                        06/22/2026  16:51:37  PAGE 29


      01000E09H   LINE      CODE     ---       #448
      01000E11H   LINE      CODE     ---       #453
      01000E14H   LINE      CODE     ---       #455
      01000E17H   LINE      CODE     ---       #458
      01000E26H   LINE      CODE     ---       #459
      01000E26H   LINE      CODE     ---       #460
      01000E2DH   LINE      CODE     ---       #461
      01000E2DH   LINE      CODE     ---       #463
      01000E3EH   LINE      CODE     ---       #464
      01000E3EH   LINE      CODE     ---       #465
      01000E45H   LINE      CODE     ---       #466
      01000E45H   LINE      CODE     ---       #468
      01000E4AH   LINE      CODE     ---       #469
      01000E4AH   LINE      CODE     ---       #470
      01000E5BH   LINE      CODE     ---       #471
      01000E5BH   LINE      CODE     ---       #472
      01000E62H   LINE      CODE     ---       #473
      01000E62H   LINE      CODE     ---       #474
      01000E62H   LINE      CODE     ---       #476
      01000E62H   LINE      CODE     ---       #477
      01000E69H   LINE      CODE     ---       #478
      01000E71H   LINE      CODE     ---       #479
      01000E71H   LINE      CODE     ---       #480
      ---         BLOCKEND  ---      ---       LVL=0

      ---         MODULE    ---      ---       INTERRUPT
      020003DAH   PUBLIC    XDATA    BYTE      Err2
      020003D9H   PUBLIC    XDATA    BYTE      Err1
      020003D1H   PUBLIC    XDATA    ---       spidebug
      020003D0H   PUBLIC    XDATA    BYTE      cc
      020003CFH   PUBLIC    XDATA    CHAR      User_cg_caVer
      01004000H   PUBLIC    CODE     ---       cg10_caVer
      01002256H   PUBLIC    CODE     ---       Can_INT
      01002C3DH   PUBLIC    CODE     ---       CMP3_INT
      010029E2H   PUBLIC    CODE     ---       SYStick_INT
      01002599H   PUBLIC    CODE     ---       TIM3_INT
      01002BBDH   PUBLIC    CODE     ---       TIM2_INT
      010022D5H   PUBLIC    CODE     ---       TIM1_INT
      010021D5H   PUBLIC    CODE     ---       DRV_ISR
      01002C87H   PUBLIC    CODE     ---       EXTERN0_INT
      01002B74H   PUBLIC    CODE     ---       LVW_TSD_INT
      000000B8H.3 SFRSYM    DATA     BIT       GP43
      000000B0H.4 SFRSYM    DATA     BIT       GP34
      000000A0H.5 SFRSYM    DATA     BIT       GP25
      00000090H.6 SFRSYM    DATA     BIT       GP16
      00000080H.7 SFRSYM    DATA     BIT       GP07
      00000088H.1 SFRSYM    DATA     BIT       IT01
      00000088H.3 SFRSYM    DATA     BIT       IT10
      000000B8H.4 SFRSYM    DATA     BIT       GP44
      000000B0H.5 SFRSYM    DATA     BIT       GP35
      000000A0H.6 SFRSYM    DATA     BIT       GP26
      00000090H.7 SFRSYM    DATA     BIT       GP17
      00000080H   SFRSYM    DATA     BYTE      P0
      00000088H.4 SFRSYM    DATA     BIT       IT11
      000000C9H   SFRSYM    DATA     BYTE      RST_SR
      000000D9H   SFRSYM    DATA     BYTE      EVT_FILT
      000000B8H.5 SFRSYM    DATA     BIT       GP45
      000000B0H.6 SFRSYM    DATA     BIT       GP36
      000000A0H.7 SFRSYM    DATA     BIT       GP27
      00000090H   SFRSYM    DATA     BYTE      P1
      000000BDH   SFRSYM    DATA     BYTE      LIN_SIZE
      000000B8H.6 SFRSYM    DATA     BIT       GP46
      000000B0H.7 SFRSYM    DATA     BIT       GP37
      000000A0H   SFRSYM    DATA     BYTE      P2
      000000B0H   SFRSYM    DATA     BYTE      P3
LX51 LINKER/LOCATER V4.66.87.0                                                        06/22/2026  16:51:37  PAGE 30


      000000B8H   SFRSYM    DATA     BYTE      P4
      000000CEH   SFRSYM    DATA     BYTE      CAN_ALC
      000000D0H.6 SFRSYM    DATA     BIT       AC
      000000A8H.7 SFRSYM    DATA     BIT       EA
      000000D5H   SFRSYM    DATA     BYTE      CMP_CR0
      000000D6H   SFRSYM    DATA     BYTE      CMP_CR1
      000000DAH   SFRSYM    DATA     BYTE      CMP_CR2
      000000DCH   SFRSYM    DATA     BYTE      CMP_CR3
      000000F8H.0 SFRSYM    DATA     BIT       OISUH
      000000E1H   SFRSYM    DATA     BYTE      CMP_CR4
      000000F8H.2 SFRSYM    DATA     BIT       OISVH
      000000F8H.4 SFRSYM    DATA     BIT       OISWH
      000000F8H.1 SFRSYM    DATA     BIT       OISUL
      000000DFH   SFRSYM    DATA     BYTE      CAN_REC
      000000A8H   SFRSYM    DATA     BYTE      IE
      000000F8H.3 SFRSYM    DATA     BIT       OISVL
      000000F9H   SFRSYM    DATA     BYTE      PI_CR
      000000F8H.5 SFRSYM    DATA     BIT       OISWL
      000000DEH   SFRSYM    DATA     BYTE      CAN_TEC
      000000B4H   SFRSYM    DATA     BYTE      CAN_IER
      000000B6H   SFRSYM    DATA     BYTE      CAN_IFR
      000000AAH   SFRSYM    DATA     WORD      TIM2__CNTR
      000000DDH   SFRSYM    DATA     BYTE      CAN_LIM
      000000A2H   SFRSYM    DATA     WORD      TIM3__CNTR
      000000F1H   SFRSYM    DATA     BYTE      OSC_CFG
      000000E2H   SFRSYM    DATA     BYTE      HALL_CR
      00000092H   SFRSYM    DATA     WORD      TIM4__CNTR
      00000098H.0 SFRSYM    DATA     BIT       RI
      00000098H.6 SFRSYM    DATA     BIT       UT_MOD0
      00000098H.7 SFRSYM    DATA     BIT       UT_MOD1
      000000D0H.7 SFRSYM    DATA     BIT       CY
      00000098H.1 SFRSYM    DATA     BIT       TI
      00000084H   SFRSYM    DATA     BYTE      FLA_KEY
      000000CFH   SFRSYM    DATA     BYTE      CAN_ESR
      00000098H   SFRSYM    DATA     BYTE      UT_CR
      00000099H   SFRSYM    DATA     BYTE      UT_DR
      000000D0H.2 SFRSYM    DATA     BIT       OV
      0000009AH   SFRSYM    DATA     WORD      UT_BAUD
      000000D8H.2 SFRSYM    DATA     BIT       UT2RB8
      000000D8H.3 SFRSYM    DATA     BIT       UT2TB8
      000000BBH   SFRSYM    DATA     BYTE      LIN_CSR
      000000D8H.5 SFRSYM    DATA     BIT       UT2SM2
      00000087H   SFRSYM    DATA     BYTE      PCON
      00000088H   SFRSYM    DATA     BYTE      TCON
      00000082H   SFRSYM    DATA     WORD      DPTR
      00000088H.2 SFRSYM    DATA     BIT       IF0
      000000D8H.4 SFRSYM    DATA     BIT       UT2REN
      000000AEH   SFRSYM    DATA     WORD      TIM2__ARR
      000000A1H   SFRSYM    DATA     BYTE      TIM2_CR0
      000000A6H   SFRSYM    DATA     WORD      TIM3__ARR
      0000009CH   SFRSYM    DATA     BYTE      TIM3_CR0
      000000A9H   SFRSYM    DATA     BYTE      TIM2_CR1
      00000096H   SFRSYM    DATA     WORD      TIM4__ARR
      0000009EH   SFRSYM    DATA     BYTE      TIM4_CR0
      0000009DH   SFRSYM    DATA     BYTE      TIM3_CR1
      000000C4H   SFRSYM    DATA     BYTE      CAN_FIR0
      000000F8H   SFRSYM    DATA     BYTE      DRV_OUT
      0000009FH   SFRSYM    DATA     BYTE      TIM4_CR1
      000000C5H   SFRSYM    DATA     BYTE      CAN_FIR1
      000000C6H   SFRSYM    DATA     BYTE      CAN_FIR2
      000000E0H   SFRSYM    DATA     BYTE      ACC
      000000DBH   SFRSYM    DATA     BYTE      LVSR
      000000C7H   SFRSYM    DATA     BYTE      CAN_FIR3
      000000A8H.4 SFRSYM    DATA     BIT       ES0
      00000085H   SFRSYM    DATA     BYTE      FLA_CR
LX51 LINKER/LOCATER V4.66.87.0                                                        06/22/2026  16:51:37  PAGE 31


      000000CAH   SFRSYM    DATA     BYTE      CAN_FMR0
      0000008AH   SFRSYM    DATA     BYTE      IP0
      000000CBH   SFRSYM    DATA     BYTE      CAN_FMR1
      0000008BH   SFRSYM    DATA     BYTE      IP1
      000000CCH   SFRSYM    DATA     BYTE      CAN_FMR2
      0000008CH   SFRSYM    DATA     BYTE      IP2
      000000CDH   SFRSYM    DATA     BYTE      CAN_FMR3
      000000B7H   SFRSYM    DATA     BYTE      CAN_BTR0
      00000098H.2 SFRSYM    DATA     BIT       RB8
      0000008DH   SFRSYM    DATA     BYTE      IP3
      000000C2H   SFRSYM    DATA     BYTE      CAN_BTR1
      000000A8H.0 SFRSYM    DATA     BIT       EX0
      000000C3H   SFRSYM    DATA     BYTE      CAN_BTR2
      00000098H.3 SFRSYM    DATA     BIT       TB8
      000000A8H.2 SFRSYM    DATA     BIT       EX1
      000000D0H.0 SFRSYM    DATA     BIT       P
      000000BCH   SFRSYM    DATA     BYTE      LIN_ID
      000000D8H   SFRSYM    DATA     BYTE      UT2_CR
      00000089H   SFRSYM    DATA     BYTE      UT2_DR
      00000098H.5 SFRSYM    DATA     BIT       SM2
      000000D0H.3 SFRSYM    DATA     BIT       RS0
      000000D0H.4 SFRSYM    DATA     BIT       RS1
      000000B3H   SFRSYM    DATA     BYTE      CAN_SR
      000000B9H   SFRSYM    DATA     BYTE      LIN_CR
      000000C1H   SFRSYM    DATA     BYTE      MDU_CR
      000000F8H.7 SFRSYM    DATA     BIT       MOE
      000000BEH   SFRSYM    DATA     WORD      LIN_BAUD
      000000A8H.5 SFRSYM    DATA     BIT       MCDIE
      00000088H.6 SFRSYM    DATA     BIT       MCDIF
      00000098H.4 SFRSYM    DATA     BIT       REN
      000000D7H   SFRSYM    DATA     BYTE      CMP_SR
      000000BAH   SFRSYM    DATA     BYTE      LIN_SR
      000000D8H.6 SFRSYM    DATA     BIT       UT2MOD0
      000000D8H.7 SFRSYM    DATA     BIT       UT2MOD1
      000000D1H   SFRSYM    DATA     BYTE      P1_IE
      000000D2H   SFRSYM    DATA     BYTE      P1_IF
      000000D3H   SFRSYM    DATA     BYTE      P4_IE
      000000D4H   SFRSYM    DATA     BYTE      P4_IF
      000000ACH   SFRSYM    DATA     WORD      TIM2__DR
      000000FCH   SFRSYM    DATA     BYTE      P0_OE
      000000A4H   SFRSYM    DATA     WORD      TIM3__DR
      000000FDH   SFRSYM    DATA     BYTE      P1_OE
      00000094H   SFRSYM    DATA     WORD      TIM4__DR
      000000D0H.5 SFRSYM    DATA     BIT       F0
      000000FEH   SFRSYM    DATA     BYTE      P2_OE
      000000D0H.1 SFRSYM    DATA     BIT       F1
      000000FFH   SFRSYM    DATA     BYTE      P3_OE
      00000080H.0 SFRSYM    DATA     BIT       GP00
      000000D8H.0 SFRSYM    DATA     BIT       UT2RI
      000000E9H   SFRSYM    DATA     BYTE      P4_OE
      00000090H.0 SFRSYM    DATA     BIT       GP10
      00000080H.1 SFRSYM    DATA     BIT       GP01
      000000B1H   SFRSYM    DATA     BYTE      CAN_CR0
      000000A8H.6 SFRSYM    DATA     BIT       RTCIE
      000000A0H.0 SFRSYM    DATA     BIT       GP20
      00000090H.1 SFRSYM    DATA     BIT       GP11
      00000080H.2 SFRSYM    DATA     BIT       GP02
      000000B2H   SFRSYM    DATA     BYTE      CAN_CR1
      000000D8H.1 SFRSYM    DATA     BIT       UT2TI
      000000B0H.0 SFRSYM    DATA     BIT       GP30
      000000A0H.1 SFRSYM    DATA     BIT       GP21
      00000090H.2 SFRSYM    DATA     BIT       GP12
      00000080H.3 SFRSYM    DATA     BIT       GP03
      000000B5H   SFRSYM    DATA     BYTE      CAN_CR2
      000000A8H.1 SFRSYM    DATA     BIT       TSDIE
LX51 LINKER/LOCATER V4.66.87.0                                                        06/22/2026  16:51:37  PAGE 32


      000000D0H   SFRSYM    DATA     BYTE      PSW
      000000B0H.1 SFRSYM    DATA     BIT       GP31
      000000A0H.2 SFRSYM    DATA     BIT       GP22
      00000090H.3 SFRSYM    DATA     BIT       GP13
      00000080H.4 SFRSYM    DATA     BIT       GP04
      000000A8H.3 SFRSYM    DATA     BIT       SPIIE
      00000088H.5 SFRSYM    DATA     BIT       TSDIF
      000000B8H.1 SFRSYM    DATA     BIT       GP41
      000000B0H.2 SFRSYM    DATA     BIT       GP32
      000000A0H.3 SFRSYM    DATA     BIT       GP23
      00000090H.4 SFRSYM    DATA     BIT       GP14
      00000080H.5 SFRSYM    DATA     BIT       GP05
      000000B8H.2 SFRSYM    DATA     BIT       GP42
      000000B0H.3 SFRSYM    DATA     BIT       GP33
      000000A0H.4 SFRSYM    DATA     BIT       GP24
      00000090H.5 SFRSYM    DATA     BIT       GP15
      00000080H.6 SFRSYM    DATA     BIT       GP06
      00000088H.0 SFRSYM    DATA     BIT       IT00

      01002B74H   BLOCK     CODE     ---       LVL=0
      01002B74H   LINE      CODE     ---       #47
      01002B76H   LINE      CODE     ---       #50
      01002B7BH   LINE      CODE     ---       #51
      01002B7BH   LINE      CODE     ---       #52
      01002B80H   LINE      CODE     ---       #53
      01002B80H   LINE      CODE     ---       #54
      01002B83H   LINE      CODE     ---       #55
      01002B86H   LINE      CODE     ---       #56
      01002B86H   LINE      CODE     ---       #58
      01002B89H   LINE      CODE     ---       #59
      01002B89H   LINE      CODE     ---       #61
      01002B8CH   LINE      CODE     ---       #62
      01002B8CH   LINE      CODE     ---       #63
      01002B91H   LINE      CODE     ---       #64
      01002B91H   LINE      CODE     ---       #65
      01002B94H   LINE      CODE     ---       #66
      01002B97H   LINE      CODE     ---       #67
      01002B97H   LINE      CODE     ---       #69
      01002B99H   LINE      CODE     ---       #70
      01002B99H   LINE      CODE     ---       #71
      ---         BLOCKEND  ---      ---       LVL=0

      01002C87H   BLOCK     CODE     ---       LVL=0
      01002C87H   LINE      CODE     ---       #78
      01002C87H   LINE      CODE     ---       #80
      01002C8AH   LINE      CODE     ---       #81
      01002C8AH   LINE      CODE     ---       #82
      01002C8CH   LINE      CODE     ---       #83
      01002C8CH   LINE      CODE     ---       #84
      ---         BLOCKEND  ---      ---       LVL=0

      010021D5H   BLOCK     CODE     ---       LVL=0
      010021D5H   LINE      CODE     ---       #91
      010021F2H   LINE      CODE     ---       #93
      010021F9H   LINE      CODE     ---       #94
      010021F9H   LINE      CODE     ---       #96
      010021FDH   LINE      CODE     ---       #97
      010021FDH   LINE      CODE     ---       #99
      01002204H   LINE      CODE     ---       #100
      01002204H   LINE      CODE     ---       #103
      01002207H   LINE      CODE     ---       #106
      01002213H   LINE      CODE     ---       #107
      0100221BH   LINE      CODE     ---       #108
      0100222AH   LINE      CODE     ---       #109
      01002232H   LINE      CODE     ---       #114
LX51 LINKER/LOCATER V4.66.87.0                                                        06/22/2026  16:51:37  PAGE 33


      0100223BH   LINE      CODE     ---       #116
      0100223BH   LINE      CODE     ---       #117
      ---         BLOCKEND  ---      ---       LVL=0

      010022D5H   BLOCK     CODE     ---       LVL=0
      010022D5H   LINE      CODE     ---       #124
      010022F2H   LINE      CODE     ---       #126
      010022F9H   LINE      CODE     ---       #127
      010022F9H   LINE      CODE     ---       #128
      010022FCH   LINE      CODE     ---       #129
      01002303H   LINE      CODE     ---       #130
      01002303H   LINE      CODE     ---       #132
      0100230AH   LINE      CODE     ---       #133
      0100230AH   LINE      CODE     ---       #134
      0100230EH   LINE      CODE     ---       #135
      0100230EH   LINE      CODE     ---       #137
      01002315H   LINE      CODE     ---       #138
      01002315H   LINE      CODE     ---       #139
      01002319H   LINE      CODE     ---       #140
      01002319H   LINE      CODE     ---       #142
      01002320H   LINE      CODE     ---       #143
      01002320H   LINE      CODE     ---       #144
      01002323H   LINE      CODE     ---       #145
      0100232AH   LINE      CODE     ---       #146
      0100232AH   LINE      CODE     ---       #148
      01002331H   LINE      CODE     ---       #149
      01002331H   LINE      CODE     ---       #150
      01002335H   LINE      CODE     ---       #151
      01002335H   LINE      CODE     ---       #152
      ---         BLOCKEND  ---      ---       LVL=0

      01002BBDH   BLOCK     CODE     ---       LVL=0
      01002BBDH   LINE      CODE     ---       #159
      01002BBFH   LINE      CODE     ---       #161
      01002BC4H   LINE      CODE     ---       #162
      01002BC4H   LINE      CODE     ---       #165
      01002BC7H   LINE      CODE     ---       #166
      01002BC7H   LINE      CODE     ---       #168
      01002BCCH   LINE      CODE     ---       #169
      01002BCCH   LINE      CODE     ---       #172
      01002BCFH   LINE      CODE     ---       #173
      01002BCFH   LINE      CODE     ---       #174
      01002BD4H   LINE      CODE     ---       #175
      01002BD4H   LINE      CODE     ---       #176
      01002BD7H   LINE      CODE     ---       #177
      01002BD7H   LINE      CODE     ---       #178
      ---         BLOCKEND  ---      ---       LVL=0

      01002599H   BLOCK     CODE     ---       LVL=0
      01002599H   LINE      CODE     ---       #208
      0100259FH   LINE      CODE     ---       #210
      010025A4H   LINE      CODE     ---       #211
      010025A4H   LINE      CODE     ---       #212
      010025A7H   LINE      CODE     ---       #213
      010025A7H   LINE      CODE     ---       #215
      010025ACH   LINE      CODE     ---       #216
      010025ACH   LINE      CODE     ---       #217
      010025B2H   LINE      CODE     ---       #218
      010025B2H   LINE      CODE     ---       #219
      010025BCH   LINE      CODE     ---       #220
      010025C6H   LINE      CODE     ---       #221
      010025CCH   LINE      CODE     ---       #222
      010025CCH   LINE      CODE     ---       #224
      010025CFH   LINE      CODE     ---       #225
      010025CFH   LINE      CODE     ---       #227
LX51 LINKER/LOCATER V4.66.87.0                                                        06/22/2026  16:51:37  PAGE 34


      010025D4H   LINE      CODE     ---       #228
      010025D4H   LINE      CODE     ---       #229
      010025DAH   LINE      CODE     ---       #230
      010025DAH   LINE      CODE     ---       #231
      010025E2H   LINE      CODE     ---       #232
      010025E2H   LINE      CODE     ---       #233
      010025E8H   LINE      CODE     ---       #234
      010025E8H   LINE      CODE     ---       #235
      010025EAH   LINE      CODE     ---       #237
      010025EAH   LINE      CODE     ---       #238
      010025EEH   LINE      CODE     ---       #239
      010025F8H   LINE      CODE     ---       #240
      010025F8H   LINE      CODE     ---       #242
      010025FEH   LINE      CODE     ---       #243
      010025FEH   LINE      CODE     ---       #245
      01002601H   LINE      CODE     ---       #246
      01002601H   LINE      CODE     ---       #247
      ---         BLOCKEND  ---      ---       LVL=0

      010029E2H   BLOCK     CODE     ---       LVL=0
      010029E2H   LINE      CODE     ---       #255
      010029E8H   LINE      CODE     ---       #257
      010029EFH   LINE      CODE     ---       #258
      010029EFH   LINE      CODE     ---       #260
      010029F2H   LINE      CODE     ---       #262
      010029F6H   LINE      CODE     ---       #263
      010029F6H   LINE      CODE     ---       #264
      010029F8H   LINE      CODE     ---       #265
      010029F8H   LINE      CODE     ---       #267
      010029FCH   LINE      CODE     ---       #268
      010029FCH   LINE      CODE     ---       #269
      010029FEH   LINE      CODE     ---       #270
      010029FEH   LINE      CODE     ---       #272
      01002A02H   LINE      CODE     ---       #273
      01002A02H   LINE      CODE     ---       #274
      01002A04H   LINE      CODE     ---       #275
      01002A04H   LINE      CODE     ---       #277
      01002A0DH   LINE      CODE     ---       #279
      01002A0DH   LINE      CODE     ---       #280
      ---         BLOCKEND  ---      ---       LVL=0

      01002C3DH   BLOCK     CODE     ---       LVL=0
      01002C3DH   LINE      CODE     ---       #290
      01002C3FH   LINE      CODE     ---       #292
      01002C44H   LINE      CODE     ---       #293
      01002C44H   LINE      CODE     ---       #294
      01002C4AH   LINE      CODE     ---       #295
      01002C4AH   LINE      CODE     ---       #296
      01002C4DH   LINE      CODE     ---       #297
      01002C4DH   LINE      CODE     ---       #299
      01002C50H   LINE      CODE     ---       #300
      01002C50H   LINE      CODE     ---       #301
      ---         BLOCKEND  ---      ---       LVL=0

      01002256H   BLOCK     CODE     ---       LVL=0
      01002256H   LINE      CODE     ---       #314
      01002273H   LINE      CODE     ---       #317
      01002279H   LINE      CODE     ---       #319
      0100227EH   LINE      CODE     ---       #320
      0100227EH   LINE      CODE     ---       #321
      01002281H   LINE      CODE     ---       #322
      01002284H   LINE      CODE     ---       #323
      01002284H   LINE      CODE     ---       #325
      01002289H   LINE      CODE     ---       #326
      01002289H   LINE      CODE     ---       #327
LX51 LINKER/LOCATER V4.66.87.0                                                        06/22/2026  16:51:37  PAGE 35


      0100228CH   LINE      CODE     ---       #328
      0100228CH   LINE      CODE     ---       #329
      01002291H   LINE      CODE     ---       #330
      01002291H   LINE      CODE     ---       #331
      01002294H   LINE      CODE     ---       #332
      01002294H   LINE      CODE     ---       #333
      01002299H   LINE      CODE     ---       #334
      01002299H   LINE      CODE     ---       #335
      0100229CH   LINE      CODE     ---       #336
      0100229CH   LINE      CODE     ---       #337
      010022A1H   LINE      CODE     ---       #338
      010022A1H   LINE      CODE     ---       #339
      010022A8H   LINE      CODE     ---       #340
      010022A8H   LINE      CODE     ---       #341
      010022AEH   LINE      CODE     ---       #342
      010022B2H   LINE      CODE     ---       #343
      010022B7H   LINE      CODE     ---       #349
      010022B7H   LINE      CODE     ---       #350
      010022BAH   LINE      CODE     ---       #351
      010022BAH   LINE      CODE     ---       #352
      ---         BLOCKEND  ---      ---       LVL=0

      ---         MODULE    ---      ---       MOTORCONTROL
      0000001AH   PUBLIC    DATA     BYTE      mcState
      020003E4H   PUBLIC    XDATA    ---       McStaSet
      01001130H   PUBLIC    CODE     ---       MC_Control
      000000B8H.3 SFRSYM    DATA     BIT       GP43
      000000B0H.4 SFRSYM    DATA     BIT       GP34
      000000A0H.5 SFRSYM    DATA     BIT       GP25
      00000090H.6 SFRSYM    DATA     BIT       GP16
      00000080H.7 SFRSYM    DATA     BIT       GP07
      00000088H.1 SFRSYM    DATA     BIT       IT01
      00000088H.3 SFRSYM    DATA     BIT       IT10
      000000B8H.4 SFRSYM    DATA     BIT       GP44
      000000B0H.5 SFRSYM    DATA     BIT       GP35
      000000A0H.6 SFRSYM    DATA     BIT       GP26
      00000090H.7 SFRSYM    DATA     BIT       GP17
      00000080H   SFRSYM    DATA     BYTE      P0
      00000088H.4 SFRSYM    DATA     BIT       IT11
      000000C9H   SFRSYM    DATA     BYTE      RST_SR
      000000D9H   SFRSYM    DATA     BYTE      EVT_FILT
      000000B8H.5 SFRSYM    DATA     BIT       GP45
      000000B0H.6 SFRSYM    DATA     BIT       GP36
      000000A0H.7 SFRSYM    DATA     BIT       GP27
      00000090H   SFRSYM    DATA     BYTE      P1
      000000BDH   SFRSYM    DATA     BYTE      LIN_SIZE
      000000B8H.6 SFRSYM    DATA     BIT       GP46
      000000B0H.7 SFRSYM    DATA     BIT       GP37
      000000A0H   SFRSYM    DATA     BYTE      P2
      000000B0H   SFRSYM    DATA     BYTE      P3
      000000B8H   SFRSYM    DATA     BYTE      P4
      000000CEH   SFRSYM    DATA     BYTE      CAN_ALC
      000000D0H.6 SFRSYM    DATA     BIT       AC
      000000A8H.7 SFRSYM    DATA     BIT       EA
      000000D5H   SFRSYM    DATA     BYTE      CMP_CR0
      000000D6H   SFRSYM    DATA     BYTE      CMP_CR1
      000000DAH   SFRSYM    DATA     BYTE      CMP_CR2
      000000DCH   SFRSYM    DATA     BYTE      CMP_CR3
      000000F8H.0 SFRSYM    DATA     BIT       OISUH
      000000E1H   SFRSYM    DATA     BYTE      CMP_CR4
      000000F8H.2 SFRSYM    DATA     BIT       OISVH
      000000F8H.4 SFRSYM    DATA     BIT       OISWH
      000000F8H.1 SFRSYM    DATA     BIT       OISUL
      000000DFH   SFRSYM    DATA     BYTE      CAN_REC
      000000A8H   SFRSYM    DATA     BYTE      IE
LX51 LINKER/LOCATER V4.66.87.0                                                        06/22/2026  16:51:37  PAGE 36


      000000F8H.3 SFRSYM    DATA     BIT       OISVL
      000000F9H   SFRSYM    DATA     BYTE      PI_CR
      000000F8H.5 SFRSYM    DATA     BIT       OISWL
      000000DEH   SFRSYM    DATA     BYTE      CAN_TEC
      000000B4H   SFRSYM    DATA     BYTE      CAN_IER
      000000B6H   SFRSYM    DATA     BYTE      CAN_IFR
      000000AAH   SFRSYM    DATA     WORD      TIM2__CNTR
      000000DDH   SFRSYM    DATA     BYTE      CAN_LIM
      000000A2H   SFRSYM    DATA     WORD      TIM3__CNTR
      000000F1H   SFRSYM    DATA     BYTE      OSC_CFG
      000000E2H   SFRSYM    DATA     BYTE      HALL_CR
      00000092H   SFRSYM    DATA     WORD      TIM4__CNTR
      00000098H.0 SFRSYM    DATA     BIT       RI
      00000098H.6 SFRSYM    DATA     BIT       UT_MOD0
      00000098H.7 SFRSYM    DATA     BIT       UT_MOD1
      000000D0H.7 SFRSYM    DATA     BIT       CY
      00000098H.1 SFRSYM    DATA     BIT       TI
      00000084H   SFRSYM    DATA     BYTE      FLA_KEY
      000000CFH   SFRSYM    DATA     BYTE      CAN_ESR
      00000098H   SFRSYM    DATA     BYTE      UT_CR
      00000099H   SFRSYM    DATA     BYTE      UT_DR
      000000D0H.2 SFRSYM    DATA     BIT       OV
      0000009AH   SFRSYM    DATA     WORD      UT_BAUD
      000000D8H.2 SFRSYM    DATA     BIT       UT2RB8
      000000D8H.3 SFRSYM    DATA     BIT       UT2TB8
      000000BBH   SFRSYM    DATA     BYTE      LIN_CSR
      000000D8H.5 SFRSYM    DATA     BIT       UT2SM2
      00000087H   SFRSYM    DATA     BYTE      PCON
      00000088H   SFRSYM    DATA     BYTE      TCON
      00000082H   SFRSYM    DATA     WORD      DPTR
      00000088H.2 SFRSYM    DATA     BIT       IF0
      000000D8H.4 SFRSYM    DATA     BIT       UT2REN
      000000AEH   SFRSYM    DATA     WORD      TIM2__ARR
      000000A1H   SFRSYM    DATA     BYTE      TIM2_CR0
      000000A6H   SFRSYM    DATA     WORD      TIM3__ARR
      0000009CH   SFRSYM    DATA     BYTE      TIM3_CR0
      000000A9H   SFRSYM    DATA     BYTE      TIM2_CR1
      00000096H   SFRSYM    DATA     WORD      TIM4__ARR
      0000009EH   SFRSYM    DATA     BYTE      TIM4_CR0
      0000009DH   SFRSYM    DATA     BYTE      TIM3_CR1
      000000C4H   SFRSYM    DATA     BYTE      CAN_FIR0
      000000F8H   SFRSYM    DATA     BYTE      DRV_OUT
      0000009FH   SFRSYM    DATA     BYTE      TIM4_CR1
      000000C5H   SFRSYM    DATA     BYTE      CAN_FIR1
      000000C6H   SFRSYM    DATA     BYTE      CAN_FIR2
      000000E0H   SFRSYM    DATA     BYTE      ACC
      000000DBH   SFRSYM    DATA     BYTE      LVSR
      000000C7H   SFRSYM    DATA     BYTE      CAN_FIR3
      000000A8H.4 SFRSYM    DATA     BIT       ES0
      00000085H   SFRSYM    DATA     BYTE      FLA_CR
      000000CAH   SFRSYM    DATA     BYTE      CAN_FMR0
      0000008AH   SFRSYM    DATA     BYTE      IP0
      000000CBH   SFRSYM    DATA     BYTE      CAN_FMR1
      0000008BH   SFRSYM    DATA     BYTE      IP1
      000000CCH   SFRSYM    DATA     BYTE      CAN_FMR2
      0000008CH   SFRSYM    DATA     BYTE      IP2
      000000CDH   SFRSYM    DATA     BYTE      CAN_FMR3
      000000B7H   SFRSYM    DATA     BYTE      CAN_BTR0
      00000098H.2 SFRSYM    DATA     BIT       RB8
      0000008DH   SFRSYM    DATA     BYTE      IP3
      000000C2H   SFRSYM    DATA     BYTE      CAN_BTR1
      000000A8H.0 SFRSYM    DATA     BIT       EX0
      000000C3H   SFRSYM    DATA     BYTE      CAN_BTR2
      00000098H.3 SFRSYM    DATA     BIT       TB8
      000000A8H.2 SFRSYM    DATA     BIT       EX1
LX51 LINKER/LOCATER V4.66.87.0                                                        06/22/2026  16:51:37  PAGE 37


      000000D0H.0 SFRSYM    DATA     BIT       P
      000000BCH   SFRSYM    DATA     BYTE      LIN_ID
      000000D8H   SFRSYM    DATA     BYTE      UT2_CR
      00000089H   SFRSYM    DATA     BYTE      UT2_DR
      00000098H.5 SFRSYM    DATA     BIT       SM2
      000000D0H.3 SFRSYM    DATA     BIT       RS0
      000000D0H.4 SFRSYM    DATA     BIT       RS1
      000000B3H   SFRSYM    DATA     BYTE      CAN_SR
      000000B9H   SFRSYM    DATA     BYTE      LIN_CR
      000000C1H   SFRSYM    DATA     BYTE      MDU_CR
      000000F8H.7 SFRSYM    DATA     BIT       MOE
      000000BEH   SFRSYM    DATA     WORD      LIN_BAUD
      000000A8H.5 SFRSYM    DATA     BIT       MCDIE
      00000088H.6 SFRSYM    DATA     BIT       MCDIF
      00000098H.4 SFRSYM    DATA     BIT       REN
      000000D7H   SFRSYM    DATA     BYTE      CMP_SR
      000000BAH   SFRSYM    DATA     BYTE      LIN_SR
      000000D8H.6 SFRSYM    DATA     BIT       UT2MOD0
      000000D8H.7 SFRSYM    DATA     BIT       UT2MOD1
      000000D1H   SFRSYM    DATA     BYTE      P1_IE
      000000D2H   SFRSYM    DATA     BYTE      P1_IF
      000000D3H   SFRSYM    DATA     BYTE      P4_IE
      000000D4H   SFRSYM    DATA     BYTE      P4_IF
      000000ACH   SFRSYM    DATA     WORD      TIM2__DR
      000000FCH   SFRSYM    DATA     BYTE      P0_OE
      000000A4H   SFRSYM    DATA     WORD      TIM3__DR
      000000FDH   SFRSYM    DATA     BYTE      P1_OE
      00000094H   SFRSYM    DATA     WORD      TIM4__DR
      000000D0H.5 SFRSYM    DATA     BIT       F0
      000000FEH   SFRSYM    DATA     BYTE      P2_OE
      000000D0H.1 SFRSYM    DATA     BIT       F1
      000000FFH   SFRSYM    DATA     BYTE      P3_OE
      00000080H.0 SFRSYM    DATA     BIT       GP00
      000000D8H.0 SFRSYM    DATA     BIT       UT2RI
      000000E9H   SFRSYM    DATA     BYTE      P4_OE
      00000090H.0 SFRSYM    DATA     BIT       GP10
      00000080H.1 SFRSYM    DATA     BIT       GP01
      000000B1H   SFRSYM    DATA     BYTE      CAN_CR0
      000000A8H.6 SFRSYM    DATA     BIT       RTCIE
      000000A0H.0 SFRSYM    DATA     BIT       GP20
      00000090H.1 SFRSYM    DATA     BIT       GP11
      00000080H.2 SFRSYM    DATA     BIT       GP02
      000000B2H   SFRSYM    DATA     BYTE      CAN_CR1
      000000D8H.1 SFRSYM    DATA     BIT       UT2TI
      000000B0H.0 SFRSYM    DATA     BIT       GP30
      000000A0H.1 SFRSYM    DATA     BIT       GP21
      00000090H.2 SFRSYM    DATA     BIT       GP12
      00000080H.3 SFRSYM    DATA     BIT       GP03
      000000B5H   SFRSYM    DATA     BYTE      CAN_CR2
      000000A8H.1 SFRSYM    DATA     BIT       TSDIE
      000000D0H   SFRSYM    DATA     BYTE      PSW
      000000B0H.1 SFRSYM    DATA     BIT       GP31
      000000A0H.2 SFRSYM    DATA     BIT       GP22
      00000090H.3 SFRSYM    DATA     BIT       GP13
      00000080H.4 SFRSYM    DATA     BIT       GP04
      000000A8H.3 SFRSYM    DATA     BIT       SPIIE
      00000088H.5 SFRSYM    DATA     BIT       TSDIF
      000000B8H.1 SFRSYM    DATA     BIT       GP41
      000000B0H.2 SFRSYM    DATA     BIT       GP32
      000000A0H.3 SFRSYM    DATA     BIT       GP23
      00000090H.4 SFRSYM    DATA     BIT       GP14
      00000080H.5 SFRSYM    DATA     BIT       GP05
      000000B8H.2 SFRSYM    DATA     BIT       GP42
      000000B0H.3 SFRSYM    DATA     BIT       GP33
      000000A0H.4 SFRSYM    DATA     BIT       GP24
LX51 LINKER/LOCATER V4.66.87.0                                                        06/22/2026  16:51:37  PAGE 38


      00000090H.5 SFRSYM    DATA     BIT       GP15
      00000080H.6 SFRSYM    DATA     BIT       GP06
      00000088H.0 SFRSYM    DATA     BIT       IT00

      01001130H   BLOCK     CODE     ---       LVL=0
      01001130H   LINE      CODE     ---       #24
      01001130H   LINE      CODE     ---       #25
      01001130H   LINE      CODE     ---       #26
      01001151H   LINE      CODE     ---       #27
      01001151H   LINE      CODE     ---       #28
      01001151H   LINE      CODE     ---       #29
      01001154H   LINE      CODE     ---       #31
      01001158H   LINE      CODE     ---       #32
      01001158H   LINE      CODE     ---       #33
      01001158H   LINE      CODE     ---       #34
      0100115BH   LINE      CODE     ---       #35
      0100116CH   LINE      CODE     ---       #36
      0100116CH   LINE      CODE     ---       #37
      0100116FH   LINE      CODE     ---       #38
      01001170H   LINE      CODE     ---       #39
      01001176H   LINE      CODE     ---       #40
      01001177H   LINE      CODE     ---       #42
      01001177H   LINE      CODE     ---       #43
      01001177H   LINE      CODE     ---       #45
      01001177H   LINE      CODE     ---       #47
      01001177H   LINE      CODE     ---       #48
      0100117BH   LINE      CODE     ---       #49
      0100117BH   LINE      CODE     ---       #50
      0100117BH   LINE      CODE     ---       #51
      0100117EH   LINE      CODE     ---       #52
      01001181H   LINE      CODE     ---       #53
      01001181H   LINE      CODE     ---       #54
      01001181H   LINE      CODE     ---       #55
      01001183H   LINE      CODE     ---       #56
      0100118EH   LINE      CODE     ---       #57
      0100118EH   LINE      CODE     ---       #58
      01001191H   LINE      CODE     ---       #60
      0100119AH   LINE      CODE     ---       #61
      0100119DH   LINE      CODE     ---       #66
      0100119DH   LINE      CODE     ---       #68
      0100119EH   LINE      CODE     ---       #71
      0100119EH   LINE      CODE     ---       #72
      010011A2H   LINE      CODE     ---       #73
      010011A2H   LINE      CODE     ---       #74
      010011A2H   LINE      CODE     ---       #75
      010011A4H   LINE      CODE     ---       #76
      010011A7H   LINE      CODE     ---       #77
      010011A7H   LINE      CODE     ---       #78
      010011AAH   LINE      CODE     ---       #79
      010011ABH   LINE      CODE     ---       #81
      010011ABH   LINE      CODE     ---       #82
      010011AEH   LINE      CODE     ---       #87
      010011BBH   LINE      CODE     ---       #88
      010011BBH   LINE      CODE     ---       #89
      010011BDH   LINE      CODE     ---       #90
      010011D3H   LINE      CODE     ---       #91
      010011D6H   LINE      CODE     ---       #92
      010011D6H   LINE      CODE     ---       #95
      010011D6H   LINE      CODE     ---       #97
      010011D7H   LINE      CODE     ---       #100
      010011D7H   LINE      CODE     ---       #103
      010011E1H   LINE      CODE     ---       #104
      010011E1H   LINE      CODE     ---       #105
      010011E4H   LINE      CODE     ---       #106
      010011E7H   LINE      CODE     ---       #107
LX51 LINKER/LOCATER V4.66.87.0                                                        06/22/2026  16:51:37  PAGE 39


      010011E7H   LINE      CODE     ---       #109
      010011E8H   LINE      CODE     ---       #111
      010011E8H   LINE      CODE     ---       #112
      010011ECH   LINE      CODE     ---       #113
      010011ECH   LINE      CODE     ---       #114
      010011ECH   LINE      CODE     ---       #115
      010011EEH   LINE      CODE     ---       #116
      010011F1H   LINE      CODE     ---       #117
      010011F1H   LINE      CODE     ---       #118
      010011F4H   LINE      CODE     ---       #119
      010011F9H   LINE      CODE     ---       #120
      010011FAH   LINE      CODE     ---       #122
      010011FAH   LINE      CODE     ---       #123
      010011FAH   LINE      CODE     ---       #125
      010011FAH   LINE      CODE     ---       #127
      010011FAH   LINE      CODE     ---       #128
      010011FEH   LINE      CODE     ---       #129
      010011FEH   LINE      CODE     ---       #130
      010011FEH   LINE      CODE     ---       #131
      01001200H   LINE      CODE     ---       #133
      01001200H   LINE      CODE     ---       #135
      01001203H   LINE      CODE     ---       #137
      01001203H   LINE      CODE     ---       #139
      01001203H   LINE      CODE     ---       #141
      01001203H   LINE      CODE     ---       #142
      01001207H   LINE      CODE     ---       #143
      01001207H   LINE      CODE     ---       #144
      0100120AH   LINE      CODE     ---       #145
      0100120BH   LINE      CODE     ---       #146
      01001215H   LINE      CODE     ---       #147
      01001215H   LINE      CODE     ---       #148
      01001217H   LINE      CODE     ---       #149
      0100121EH   LINE      CODE     ---       #150
      0100121EH   LINE      CODE     ---       #151
      0100121EH   LINE      CODE     ---       #153
      01001220H   LINE      CODE     ---       #155
      01001220H   LINE      CODE     ---       #156
      01001224H   LINE      CODE     ---       #157
      01001224H   LINE      CODE     ---       #158
      01001226H   LINE      CODE     ---       #159
      0100122AH   LINE      CODE     ---       #160
      0100122BH   LINE      CODE     ---       #162
      0100122BH   LINE      CODE     ---       #163
      01001232H   LINE      CODE     ---       #164
      01001234H   LINE      CODE     ---       #166
      0100123AH   LINE      CODE     ---       #167
      0100123AH   LINE      CODE     ---       #168
      01001240H   LINE      CODE     ---       #169
      01001240H   LINE      CODE     ---       #170
      01001246H   LINE      CODE     ---       #171
      01001246H   LINE      CODE     ---       #173
      0100124CH   LINE      CODE     ---       #174
      0100124CH   LINE      CODE     ---       #175
      0100124CH   LINE      CODE     ---       #177
      0100124DH   LINE      CODE     ---       #179
      0100124DH   LINE      CODE     ---       #180
      01001250H   LINE      CODE     ---       #181
      01001250H   LINE      CODE     ---       #182
      01001250H   LINE      CODE     ---       #183
      ---         BLOCKEND  ---      ---       LVL=0

      ---         MODULE    ---      ---       MOTORCONTROLFUNCTION
      0200038AH   PUBLIC    XDATA    ---       mcCurOffset
      01002C0DH   PUBLIC    CODE     ---       Motor_Init
      0100002EH   PUBLIC    CODE     ---       Motor_Ready
LX51 LINKER/LOCATER V4.66.87.0                                                        06/22/2026  16:51:37  PAGE 40


      01002151H   PUBLIC    CODE     ---       GetCurrentOffset
      01001F13H   PUBLIC    CODE     ---       VariablesPreInit
      010028CBH   PUBLIC    CODE     ---       MotorcontrolInit
      010017BDH   PUBLIC    CODE     ---       Motor_Stop
      01002780H   PUBLIC    CODE     ---       Motor_Static_Open
      01001A6AH   PUBLIC    CODE     ---       Motor_Charge
      010018ADH   PUBLIC    CODE     ---       FOC_Init
      000000B8H.3 SFRSYM    DATA     BIT       GP43
      000000B0H.4 SFRSYM    DATA     BIT       GP34
      000000A0H.5 SFRSYM    DATA     BIT       GP25
      00000090H.6 SFRSYM    DATA     BIT       GP16
      00000080H.7 SFRSYM    DATA     BIT       GP07
      00000088H.1 SFRSYM    DATA     BIT       IT01
      00000088H.3 SFRSYM    DATA     BIT       IT10
      000000B8H.4 SFRSYM    DATA     BIT       GP44
      000000B0H.5 SFRSYM    DATA     BIT       GP35
      000000A0H.6 SFRSYM    DATA     BIT       GP26
      00000090H.7 SFRSYM    DATA     BIT       GP17
      00000080H   SFRSYM    DATA     BYTE      P0
      00000088H.4 SFRSYM    DATA     BIT       IT11
      000000C9H   SFRSYM    DATA     BYTE      RST_SR
      000000D9H   SFRSYM    DATA     BYTE      EVT_FILT
      000000B8H.5 SFRSYM    DATA     BIT       GP45
      000000B0H.6 SFRSYM    DATA     BIT       GP36
      000000A0H.7 SFRSYM    DATA     BIT       GP27
      00000090H   SFRSYM    DATA     BYTE      P1
      000000BDH   SFRSYM    DATA     BYTE      LIN_SIZE
      000000B8H.6 SFRSYM    DATA     BIT       GP46
      000000B0H.7 SFRSYM    DATA     BIT       GP37
      000000A0H   SFRSYM    DATA     BYTE      P2
      000000B0H   SFRSYM    DATA     BYTE      P3
      000000B8H   SFRSYM    DATA     BYTE      P4
      000000CEH   SFRSYM    DATA     BYTE      CAN_ALC
      000000D0H.6 SFRSYM    DATA     BIT       AC
      000000A8H.7 SFRSYM    DATA     BIT       EA
      000000D5H   SFRSYM    DATA     BYTE      CMP_CR0
      000000D6H   SFRSYM    DATA     BYTE      CMP_CR1
      000000DAH   SFRSYM    DATA     BYTE      CMP_CR2
      000000DCH   SFRSYM    DATA     BYTE      CMP_CR3
      000000F8H.0 SFRSYM    DATA     BIT       OISUH
      000000E1H   SFRSYM    DATA     BYTE      CMP_CR4
      000000F8H.2 SFRSYM    DATA     BIT       OISVH
      000000F8H.4 SFRSYM    DATA     BIT       OISWH
      000000F8H.1 SFRSYM    DATA     BIT       OISUL
      000000DFH   SFRSYM    DATA     BYTE      CAN_REC
      000000A8H   SFRSYM    DATA     BYTE      IE
      000000F8H.3 SFRSYM    DATA     BIT       OISVL
      000000F9H   SFRSYM    DATA     BYTE      PI_CR
      000000F8H.5 SFRSYM    DATA     BIT       OISWL
      000000DEH   SFRSYM    DATA     BYTE      CAN_TEC
      000000B4H   SFRSYM    DATA     BYTE      CAN_IER
      000000B6H   SFRSYM    DATA     BYTE      CAN_IFR
      000000AAH   SFRSYM    DATA     WORD      TIM2__CNTR
      000000DDH   SFRSYM    DATA     BYTE      CAN_LIM
      000000A2H   SFRSYM    DATA     WORD      TIM3__CNTR
      000000F1H   SFRSYM    DATA     BYTE      OSC_CFG
      000000E2H   SFRSYM    DATA     BYTE      HALL_CR
      00000092H   SFRSYM    DATA     WORD      TIM4__CNTR
      00000098H.0 SFRSYM    DATA     BIT       RI
      00000098H.6 SFRSYM    DATA     BIT       UT_MOD0
      00000098H.7 SFRSYM    DATA     BIT       UT_MOD1
      000000D0H.7 SFRSYM    DATA     BIT       CY
      00000098H.1 SFRSYM    DATA     BIT       TI
      00000084H   SFRSYM    DATA     BYTE      FLA_KEY
      000000CFH   SFRSYM    DATA     BYTE      CAN_ESR
LX51 LINKER/LOCATER V4.66.87.0                                                        06/22/2026  16:51:37  PAGE 41


      00000098H   SFRSYM    DATA     BYTE      UT_CR
      00000099H   SFRSYM    DATA     BYTE      UT_DR
      000000D0H.2 SFRSYM    DATA     BIT       OV
      0000009AH   SFRSYM    DATA     WORD      UT_BAUD
      000000D8H.2 SFRSYM    DATA     BIT       UT2RB8
      000000D8H.3 SFRSYM    DATA     BIT       UT2TB8
      000000BBH   SFRSYM    DATA     BYTE      LIN_CSR
      000000D8H.5 SFRSYM    DATA     BIT       UT2SM2
      00000087H   SFRSYM    DATA     BYTE      PCON
      00000088H   SFRSYM    DATA     BYTE      TCON
      00000082H   SFRSYM    DATA     WORD      DPTR
      00000088H.2 SFRSYM    DATA     BIT       IF0
      000000D8H.4 SFRSYM    DATA     BIT       UT2REN
      000000AEH   SFRSYM    DATA     WORD      TIM2__ARR
      000000A1H   SFRSYM    DATA     BYTE      TIM2_CR0
      000000A6H   SFRSYM    DATA     WORD      TIM3__ARR
      0000009CH   SFRSYM    DATA     BYTE      TIM3_CR0
      000000A9H   SFRSYM    DATA     BYTE      TIM2_CR1
      00000096H   SFRSYM    DATA     WORD      TIM4__ARR
      0000009EH   SFRSYM    DATA     BYTE      TIM4_CR0
      0000009DH   SFRSYM    DATA     BYTE      TIM3_CR1
      000000C4H   SFRSYM    DATA     BYTE      CAN_FIR0
      000000F8H   SFRSYM    DATA     BYTE      DRV_OUT
      0000009FH   SFRSYM    DATA     BYTE      TIM4_CR1
      000000C5H   SFRSYM    DATA     BYTE      CAN_FIR1
      000000C6H   SFRSYM    DATA     BYTE      CAN_FIR2
      000000E0H   SFRSYM    DATA     BYTE      ACC
      000000DBH   SFRSYM    DATA     BYTE      LVSR
      000000C7H   SFRSYM    DATA     BYTE      CAN_FIR3
      000000A8H.4 SFRSYM    DATA     BIT       ES0
      00000085H   SFRSYM    DATA     BYTE      FLA_CR
      000000CAH   SFRSYM    DATA     BYTE      CAN_FMR0
      0000008AH   SFRSYM    DATA     BYTE      IP0
      000000CBH   SFRSYM    DATA     BYTE      CAN_FMR1
      0000008BH   SFRSYM    DATA     BYTE      IP1
      000000CCH   SFRSYM    DATA     BYTE      CAN_FMR2
      0000008CH   SFRSYM    DATA     BYTE      IP2
      000000CDH   SFRSYM    DATA     BYTE      CAN_FMR3
      000000B7H   SFRSYM    DATA     BYTE      CAN_BTR0
      00000098H.2 SFRSYM    DATA     BIT       RB8
      0000008DH   SFRSYM    DATA     BYTE      IP3
      000000C2H   SFRSYM    DATA     BYTE      CAN_BTR1
      000000A8H.0 SFRSYM    DATA     BIT       EX0
      000000C3H   SFRSYM    DATA     BYTE      CAN_BTR2
      00000098H.3 SFRSYM    DATA     BIT       TB8
      000000A8H.2 SFRSYM    DATA     BIT       EX1
      000000D0H.0 SFRSYM    DATA     BIT       P
      000000BCH   SFRSYM    DATA     BYTE      LIN_ID
      000000D8H   SFRSYM    DATA     BYTE      UT2_CR
      00000089H   SFRSYM    DATA     BYTE      UT2_DR
      00000098H.5 SFRSYM    DATA     BIT       SM2
      000000D0H.3 SFRSYM    DATA     BIT       RS0
      000000D0H.4 SFRSYM    DATA     BIT       RS1
      000000B3H   SFRSYM    DATA     BYTE      CAN_SR
      000000B9H   SFRSYM    DATA     BYTE      LIN_CR
      000000C1H   SFRSYM    DATA     BYTE      MDU_CR
      000000F8H.7 SFRSYM    DATA     BIT       MOE
      000000BEH   SFRSYM    DATA     WORD      LIN_BAUD
      000000A8H.5 SFRSYM    DATA     BIT       MCDIE
      00000088H.6 SFRSYM    DATA     BIT       MCDIF
      00000098H.4 SFRSYM    DATA     BIT       REN
      000000D7H   SFRSYM    DATA     BYTE      CMP_SR
      000000BAH   SFRSYM    DATA     BYTE      LIN_SR
      000000D8H.6 SFRSYM    DATA     BIT       UT2MOD0
      000000D8H.7 SFRSYM    DATA     BIT       UT2MOD1
LX51 LINKER/LOCATER V4.66.87.0                                                        06/22/2026  16:51:37  PAGE 42


      000000D1H   SFRSYM    DATA     BYTE      P1_IE
      000000D2H   SFRSYM    DATA     BYTE      P1_IF
      000000D3H   SFRSYM    DATA     BYTE      P4_IE
      000000D4H   SFRSYM    DATA     BYTE      P4_IF
      000000ACH   SFRSYM    DATA     WORD      TIM2__DR
      000000FCH   SFRSYM    DATA     BYTE      P0_OE
      000000A4H   SFRSYM    DATA     WORD      TIM3__DR
      000000FDH   SFRSYM    DATA     BYTE      P1_OE
      00000094H   SFRSYM    DATA     WORD      TIM4__DR
      000000D0H.5 SFRSYM    DATA     BIT       F0
      000000FEH   SFRSYM    DATA     BYTE      P2_OE
      000000D0H.1 SFRSYM    DATA     BIT       F1
      000000FFH   SFRSYM    DATA     BYTE      P3_OE
      00000080H.0 SFRSYM    DATA     BIT       GP00
      000000D8H.0 SFRSYM    DATA     BIT       UT2RI
      000000E9H   SFRSYM    DATA     BYTE      P4_OE
      00000090H.0 SFRSYM    DATA     BIT       GP10
      00000080H.1 SFRSYM    DATA     BIT       GP01
      000000B1H   SFRSYM    DATA     BYTE      CAN_CR0
      000000A8H.6 SFRSYM    DATA     BIT       RTCIE
      000000A0H.0 SFRSYM    DATA     BIT       GP20
      00000090H.1 SFRSYM    DATA     BIT       GP11
      00000080H.2 SFRSYM    DATA     BIT       GP02
      000000B2H   SFRSYM    DATA     BYTE      CAN_CR1
      000000D8H.1 SFRSYM    DATA     BIT       UT2TI
      000000B0H.0 SFRSYM    DATA     BIT       GP30
      000000A0H.1 SFRSYM    DATA     BIT       GP21
      00000090H.2 SFRSYM    DATA     BIT       GP12
      00000080H.3 SFRSYM    DATA     BIT       GP03
      000000B5H   SFRSYM    DATA     BYTE      CAN_CR2
      000000A8H.1 SFRSYM    DATA     BIT       TSDIE
      000000D0H   SFRSYM    DATA     BYTE      PSW
      000000B0H.1 SFRSYM    DATA     BIT       GP31
      000000A0H.2 SFRSYM    DATA     BIT       GP22
      00000090H.3 SFRSYM    DATA     BIT       GP13
      00000080H.4 SFRSYM    DATA     BIT       GP04
      000000A8H.3 SFRSYM    DATA     BIT       SPIIE
      00000088H.5 SFRSYM    DATA     BIT       TSDIF
      000000B8H.1 SFRSYM    DATA     BIT       GP41
      000000B0H.2 SFRSYM    DATA     BIT       GP32
      000000A0H.3 SFRSYM    DATA     BIT       GP23
      00000090H.4 SFRSYM    DATA     BIT       GP14
      00000080H.5 SFRSYM    DATA     BIT       GP05
      000000B8H.2 SFRSYM    DATA     BIT       GP42
      000000B0H.3 SFRSYM    DATA     BIT       GP33
      000000A0H.4 SFRSYM    DATA     BIT       GP24
      00000090H.5 SFRSYM    DATA     BIT       GP15
      00000080H.6 SFRSYM    DATA     BIT       GP06
      00000088H.0 SFRSYM    DATA     BIT       IT00

      01002441H   BLOCK     CODE     ---       LVL=0
      ---         BLOCKEND  ---      ---       LVL=0

      010018ADH   BLOCK     CODE     ---       LVL=0
      010018ADH   LINE      CODE     ---       #21
      010018ADH   LINE      CODE     ---       #22
      010018ADH   LINE      CODE     ---       #23
      010018B7H   LINE      CODE     ---       #25
      010018BEH   LINE      CODE     ---       #26
      010018C2H   LINE      CODE     ---       #27
      010018C6H   LINE      CODE     ---       #28
      010018CDH   LINE      CODE     ---       #29
      010018D1H   LINE      CODE     ---       #31
      010018D1H   LINE      CODE     ---       #32
      010018D5H   LINE      CODE     ---       #33
LX51 LINKER/LOCATER V4.66.87.0                                                        06/22/2026  16:51:37  PAGE 43


      010018D5H   LINE      CODE     ---       #35
      010018DBH   LINE      CODE     ---       #37
      010018E0H   LINE      CODE     ---       #38
      010018E2H   LINE      CODE     ---       #39
      010018E5H   LINE      CODE     ---       #40
      010018E8H   LINE      CODE     ---       #41
      010018EEH   LINE      CODE     ---       #42
      010018F4H   LINE      CODE     ---       #43
      010018FAH   LINE      CODE     ---       #44
      010018FEH   LINE      CODE     ---       #45
      01001904H   LINE      CODE     ---       #46
      01001908H   LINE      CODE     ---       #48
      01001912H   LINE      CODE     ---       #49
      0100191AH   LINE      CODE     ---       #50
      01001922H   LINE      CODE     ---       #51
      0100192AH   LINE      CODE     ---       #52
      01001930H   LINE      CODE     ---       #61
      01001936H   LINE      CODE     ---       #62
      0100193DH   LINE      CODE     ---       #69
      01001944H   LINE      CODE     ---       #87
      01001944H   LINE      CODE     ---       #88
      0100194BH   LINE      CODE     ---       #89
      01001951H   LINE      CODE     ---       #90
      01001957H   LINE      CODE     ---       #92
      0100195EH   LINE      CODE     ---       #93
      0100195EH   LINE      CODE     ---       #153
      0100195EH   LINE      CODE     ---       #154
      01001965H   LINE      CODE     ---       #155
      01001965H   LINE      CODE     ---       #157
      01001965H   LINE      CODE     ---       #159
      0100196CH   LINE      CODE     ---       #160
      0100197BH   LINE      CODE     ---       #161
      0100197BH   LINE      CODE     ---       #184
      0100197BH   LINE      CODE     ---       #185
      0100197BH   LINE      CODE     ---       #193
      01001982H   LINE      CODE     ---       #194
      01001986H   LINE      CODE     ---       #195
      0100198DH   LINE      CODE     ---       #196
      01001991H   LINE      CODE     ---       #197
      01001995H   LINE      CODE     ---       #198
      ---         BLOCKEND  ---      ---       LVL=0

      01001A6AH   BLOCK     CODE     ---       LVL=0
      01001A6AH   LINE      CODE     ---       #207
      01001A6AH   LINE      CODE     ---       #208
      01001A6AH   LINE      CODE     ---       #209
      01001A71H   LINE      CODE     ---       #210
      01001A71H   LINE      CODE     ---       #211
      01001A75H   LINE      CODE     ---       #212
      01001A7CH   LINE      CODE     ---       #213
      01001A9EH   LINE      CODE     ---       #214
      01001AADH   LINE      CODE     ---       #220
      01001AB4H   LINE      CODE     ---       #221
      01001AB9H   LINE      CODE     ---       #222
      01001AB9H   LINE      CODE     ---       #224
      01001ACBH   LINE      CODE     ---       #225
      01001ACBH   LINE      CODE     ---       #226
      01001ACDH   LINE      CODE     ---       #227
      01001ADEH   LINE      CODE     ---       #228
      01001AE1H   LINE      CODE     ---       #229
      01001AE1H   LINE      CODE     ---       #231
      01001AF4H   LINE      CODE     ---       #232
      01001AF4H   LINE      CODE     ---       #233
      01001AF7H   LINE      CODE     ---       #234
      01001B0DH   LINE      CODE     ---       #235
LX51 LINKER/LOCATER V4.66.87.0                                                        06/22/2026  16:51:37  PAGE 44


      01001B0DH   LINE      CODE     ---       #237
      01001B20H   LINE      CODE     ---       #238
      01001B20H   LINE      CODE     ---       #239
      01001B23H   LINE      CODE     ---       #240
      01001B39H   LINE      CODE     ---       #241
      01001B39H   LINE      CODE     ---       #252
      ---         BLOCKEND  ---      ---       LVL=0

      01002780H   BLOCK     CODE     ---       LVL=0
      01002780H   LINE      CODE     ---       #320
      01002780H   LINE      CODE     ---       #321
      01002780H   LINE      CODE     ---       #322
      01002783H   LINE      CODE     ---       #328
      0100278DH   LINE      CODE     ---       #329
      01002794H   LINE      CODE     ---       #331
      0100279AH   LINE      CODE     ---       #332
      0100279FH   LINE      CODE     ---       #333
      0100279FH   LINE      CODE     ---       #334
      0100279FH   LINE      CODE     ---       #335
      0100279FH   LINE      CODE     ---       #336
      010027A2H   LINE      CODE     ---       #337
      010027B1H   LINE      CODE     ---       #338
      010027C2H   LINE      CODE     ---       #339
      010027C5H   LINE      CODE     ---       #340
      010027C7H   LINE      CODE     ---       #341
      ---         BLOCKEND  ---      ---       LVL=0

      010017BDH   BLOCK     CODE     ---       LVL=0
      010017BDH   LINE      CODE     ---       #342
      010017BDH   LINE      CODE     ---       #343
      010017BDH   LINE      CODE     ---       #344
      010017C4H   LINE      CODE     ---       #345
      010017C4H   LINE      CODE     ---       #347
      010017C6H   LINE      CODE     ---       #349
      010017CAH   LINE      CODE     ---       #350
      010017CAH   LINE      CODE     ---       #351
      010017CAH   LINE      CODE     ---       #352
      010017CAH   LINE      CODE     ---       #353
      010017CAH   LINE      CODE     ---       #355
      010017CAH   LINE      CODE     ---       #356
      010017D4H   LINE      CODE     ---       #357
      010017DEH   LINE      CODE     ---       #358
      010017DEH   LINE      CODE     ---       #360
      010017EBH   LINE      CODE     ---       #361
      010017EBH   LINE      CODE     ---       #362
      010017F5H   LINE      CODE     ---       #363
      010017F6H   LINE      CODE     ---       #365
      010017F6H   LINE      CODE     ---       #366
      010017FCH   LINE      CODE     ---       #367
      010017FCH   LINE      CODE     ---       #368
      010017FDH   LINE      CODE     ---       #370
      01001802H   LINE      CODE     ---       #371
      01001802H   LINE      CODE     ---       #372
      01001860H   LINE      CODE     ---       #375
      01001860H   LINE      CODE     ---       #376
      01001862H   LINE      CODE     ---       #377
      01001867H   LINE      CODE     ---       #378
      0100186AH   LINE      CODE     ---       #379
      0100186CH   LINE      CODE     ---       #380
      01001872H   LINE      CODE     ---       #381
      01001872H   LINE      CODE     ---       #382
      01001873H   LINE      CODE     ---       #383
      0100187BH   LINE      CODE     ---       #384
      0100187BH   LINE      CODE     ---       #385
      01001880H   LINE      CODE     ---       #386
LX51 LINKER/LOCATER V4.66.87.0                                                        06/22/2026  16:51:37  PAGE 45


      01001882H   LINE      CODE     ---       #387
      01001888H   LINE      CODE     ---       #389
      0100188EH   LINE      CODE     ---       #390
      0100188EH   LINE      CODE     ---       #391
      01001894H   LINE      CODE     ---       #392
      01001894H   LINE      CODE     ---       #393
      01001895H   LINE      CODE     ---       #394
      01001899H   LINE      CODE     ---       #395
      01001899H   LINE      CODE     ---       #397
      010018A3H   LINE      CODE     ---       #398
      010018A3H   LINE      CODE     ---       #399
      010018AAH   LINE      CODE     ---       #400
      010018AAH   LINE      CODE     ---       #401
      010018ACH   LINE      CODE     ---       #402
      010018ACH   LINE      CODE     ---       #403
      010018ACH   LINE      CODE     ---       #404
      010018ACH   LINE      CODE     ---       #405
      ---         BLOCKEND  ---      ---       LVL=0

      010028CBH   BLOCK     CODE     ---       LVL=0
      010028CBH   LINE      CODE     ---       #429
      010028CBH   LINE      CODE     ---       #430
      010028CBH   LINE      CODE     ---       #432
      010028D0H   LINE      CODE     ---       #444
      010028DAH   LINE      CODE     ---       #445
      010028E4H   LINE      CODE     ---       #446
      010028EEH   LINE      CODE     ---       #447
      010028F6H   LINE      CODE     ---       #449
      010028F6H   LINE      CODE     ---       #450
      010028F9H   LINE      CODE     ---       #451
      010028FEH   LINE      CODE     ---       #452
      01002904H   LINE      CODE     ---       #453
      ---         BLOCKEND  ---      ---       LVL=0

      01001F13H   BLOCK     CODE     ---       LVL=0
      01001F13H   LINE      CODE     ---       #461
      01001F13H   LINE      CODE     ---       #462
      01001F13H   LINE      CODE     ---       #464
      01001F17H   LINE      CODE     ---       #465
      01001F17H   LINE      CODE     ---       #466
      01001F17H   LINE      CODE     ---       #467
      01001F17H   LINE      CODE     ---       #468
      01001F17H   LINE      CODE     ---       #469
      01001F1AH   LINE      CODE     ---       #470
      01001F1AH   LINE      CODE     ---       #472
      01001F1AH   LINE      CODE     ---       #473
      01001F1AH   LINE      CODE     ---       #474
      01001F1AH   LINE      CODE     ---       #475
      01001F1DH   LINE      CODE     ---       #477
      01001F1DH   LINE      CODE     ---       #478
      01001F20H   LINE      CODE     ---       #480
      01001F2AH   LINE      CODE     ---       #481
      01001F32H   LINE      CODE     ---       #482
      01001F39H   LINE      CODE     ---       #483
      01001F3CH   LINE      CODE     ---       #484
      01001F3CH   LINE      CODE     ---       #485
      01001F3CH   LINE      CODE     ---       #486
      01001F3CH   LINE      CODE     ---       #487
      01001F3CH   LINE      CODE     ---       #488
      01001F3FH   LINE      CODE     ---       #489
      01001F45H   LINE      CODE     ---       #490
      01001F47H   LINE      CODE     ---       #491
      01001F4BH   LINE      CODE     ---       #492
      01001F4FH   LINE      CODE     ---       #493
      01001F53H   LINE      CODE     ---       #494
LX51 LINKER/LOCATER V4.66.87.0                                                        06/22/2026  16:51:37  PAGE 46


      01001F57H   LINE      CODE     ---       #495
      01001F5AH   LINE      CODE     ---       #496
      01001F5CH   LINE      CODE     ---       #497
      01001F5EH   LINE      CODE     ---       #498
      01001F62H   LINE      CODE     ---       #499
      01001F66H   LINE      CODE     ---       #500
      01001F6AH   LINE      CODE     ---       #501
      01001F6EH   LINE      CODE     ---       #502
      01001F72H   LINE      CODE     ---       #503
      01001F76H   LINE      CODE     ---       #504
      01001F78H   LINE      CODE     ---       #505
      01001F7CH   LINE      CODE     ---       #506
      01001F80H   LINE      CODE     ---       #507
      01001F84H   LINE      CODE     ---       #508
      01001F86H   LINE      CODE     ---       #509
      01001F88H   LINE      CODE     ---       #510
      01001F8EH   LINE      CODE     ---       #511
      01001F94H   LINE      CODE     ---       #512
      01001F98H   LINE      CODE     ---       #513
      01001F9EH   LINE      CODE     ---       #514
      01001FA6H   LINE      CODE     ---       #517
      ---         BLOCKEND  ---      ---       LVL=0

      01002151H   BLOCK     CODE     ---       LVL=0
      01002151H   LINE      CODE     ---       #527
      01002151H   LINE      CODE     ---       #528
      01002151H   LINE      CODE     ---       #529
      01002158H   LINE      CODE     ---       #531
      0100215FH   LINE      CODE     ---       #534
      0100215FH   LINE      CODE     ---       #535
      0100217DH   LINE      CODE     ---       #536
      01002190H   LINE      CODE     ---       #537
      010021B3H   LINE      CODE     ---       #538
      010021B3H   LINE      CODE     ---       #561
      010021BDH   LINE      CODE     ---       #563
      010021CEH   LINE      CODE     ---       #564
      010021CEH   LINE      CODE     ---       #565
      010021D4H   LINE      CODE     ---       #566
      010021D4H   LINE      CODE     ---       #567
      ---         BLOCKEND  ---      ---       LVL=0

      0100002EH   BLOCK     CODE     ---       LVL=0
      0100002EH   LINE      CODE     ---       #575
      0100002EH   LINE      CODE     ---       #576
      0100002EH   LINE      CODE     ---       #577
      01000035H   LINE      CODE     ---       #578
      01000035H   LINE      CODE     ---       #579
      01000039H   LINE      CODE     ---       #580
      0100003BH   LINE      CODE     ---       #581
      0100003EH   LINE      CODE     ---       #582
      01000042H   LINE      CODE     ---       #583
      01000042H   LINE      CODE     ---       #584
      ---         BLOCKEND  ---      ---       LVL=0

      01002C0DH   BLOCK     CODE     ---       LVL=0
      01002C0DH   LINE      CODE     ---       #593
      01002C0DH   LINE      CODE     ---       #594
      01002C0DH   LINE      CODE     ---       #595
      01002C10H   LINE      CODE     ---       #596
      01002C13H   LINE      CODE     ---       #597
      ---         BLOCKEND  ---      ---       LVL=0

      ---         MODULE    ---      ---       MOTORPROTECT
      0200028BH   PUBLIC    XDATA    ---       Restart
      0000007DH   PUBLIC    IDATA    ---       mcCurVarible
LX51 LINKER/LOCATER V4.66.87.0                                                        06/22/2026  16:51:37  PAGE 47


      0000001BH   PUBLIC    DATA     BYTE      mcFaultSource
      0200028AH   PUBLIC    XDATA    BYTE      mcPOSTErrSource
      0200023EH   PUBLIC    XDATA    ---       Fault
      01000FF3H   PUBLIC    CODE     ---       Fault_Recovery
      01000006H   PUBLIC    CODE     ---       Fault_Detection
      000000B8H.3 SFRSYM    DATA     BIT       GP43
      000000B0H.4 SFRSYM    DATA     BIT       GP34
      000000A0H.5 SFRSYM    DATA     BIT       GP25
      00000090H.6 SFRSYM    DATA     BIT       GP16
      00000080H.7 SFRSYM    DATA     BIT       GP07
      00000088H.1 SFRSYM    DATA     BIT       IT01
      00000088H.3 SFRSYM    DATA     BIT       IT10
      000000B8H.4 SFRSYM    DATA     BIT       GP44
      000000B0H.5 SFRSYM    DATA     BIT       GP35
      000000A0H.6 SFRSYM    DATA     BIT       GP26
      00000090H.7 SFRSYM    DATA     BIT       GP17
      00000080H   SFRSYM    DATA     BYTE      P0
      00000088H.4 SFRSYM    DATA     BIT       IT11
      000000C9H   SFRSYM    DATA     BYTE      RST_SR
      000000D9H   SFRSYM    DATA     BYTE      EVT_FILT
      000000B8H.5 SFRSYM    DATA     BIT       GP45
      000000B0H.6 SFRSYM    DATA     BIT       GP36
      000000A0H.7 SFRSYM    DATA     BIT       GP27
      00000090H   SFRSYM    DATA     BYTE      P1
      000000BDH   SFRSYM    DATA     BYTE      LIN_SIZE
      000000B8H.6 SFRSYM    DATA     BIT       GP46
      000000B0H.7 SFRSYM    DATA     BIT       GP37
      000000A0H   SFRSYM    DATA     BYTE      P2
      000000B0H   SFRSYM    DATA     BYTE      P3
      000000B8H   SFRSYM    DATA     BYTE      P4
      000000CEH   SFRSYM    DATA     BYTE      CAN_ALC
      000000D0H.6 SFRSYM    DATA     BIT       AC
      000000A8H.7 SFRSYM    DATA     BIT       EA
      000000D5H   SFRSYM    DATA     BYTE      CMP_CR0
      000000D6H   SFRSYM    DATA     BYTE      CMP_CR1
      000000DAH   SFRSYM    DATA     BYTE      CMP_CR2
      000000DCH   SFRSYM    DATA     BYTE      CMP_CR3
      000000F8H.0 SFRSYM    DATA     BIT       OISUH
      000000E1H   SFRSYM    DATA     BYTE      CMP_CR4
      000000F8H.2 SFRSYM    DATA     BIT       OISVH
      000000F8H.4 SFRSYM    DATA     BIT       OISWH
      000000F8H.1 SFRSYM    DATA     BIT       OISUL
      000000DFH   SFRSYM    DATA     BYTE      CAN_REC
      000000A8H   SFRSYM    DATA     BYTE      IE
      000000F8H.3 SFRSYM    DATA     BIT       OISVL
      000000F9H   SFRSYM    DATA     BYTE      PI_CR
      000000F8H.5 SFRSYM    DATA     BIT       OISWL
      000000DEH   SFRSYM    DATA     BYTE      CAN_TEC
      000000B4H   SFRSYM    DATA     BYTE      CAN_IER
      000000B6H   SFRSYM    DATA     BYTE      CAN_IFR
      000000AAH   SFRSYM    DATA     WORD      TIM2__CNTR
      000000DDH   SFRSYM    DATA     BYTE      CAN_LIM
      000000A2H   SFRSYM    DATA     WORD      TIM3__CNTR
      000000F1H   SFRSYM    DATA     BYTE      OSC_CFG
      000000E2H   SFRSYM    DATA     BYTE      HALL_CR
      00000092H   SFRSYM    DATA     WORD      TIM4__CNTR
      00000098H.0 SFRSYM    DATA     BIT       RI
      00000098H.6 SFRSYM    DATA     BIT       UT_MOD0
      00000098H.7 SFRSYM    DATA     BIT       UT_MOD1
      000000D0H.7 SFRSYM    DATA     BIT       CY
      00000098H.1 SFRSYM    DATA     BIT       TI
      00000084H   SFRSYM    DATA     BYTE      FLA_KEY
      000000CFH   SFRSYM    DATA     BYTE      CAN_ESR
      00000098H   SFRSYM    DATA     BYTE      UT_CR
      00000099H   SFRSYM    DATA     BYTE      UT_DR
LX51 LINKER/LOCATER V4.66.87.0                                                        06/22/2026  16:51:37  PAGE 48


      000000D0H.2 SFRSYM    DATA     BIT       OV
      0000009AH   SFRSYM    DATA     WORD      UT_BAUD
      000000D8H.2 SFRSYM    DATA     BIT       UT2RB8
      000000D8H.3 SFRSYM    DATA     BIT       UT2TB8
      000000BBH   SFRSYM    DATA     BYTE      LIN_CSR
      000000D8H.5 SFRSYM    DATA     BIT       UT2SM2
      00000087H   SFRSYM    DATA     BYTE      PCON
      00000088H   SFRSYM    DATA     BYTE      TCON
      00000082H   SFRSYM    DATA     WORD      DPTR
      00000088H.2 SFRSYM    DATA     BIT       IF0
      000000D8H.4 SFRSYM    DATA     BIT       UT2REN
      000000AEH   SFRSYM    DATA     WORD      TIM2__ARR
      000000A1H   SFRSYM    DATA     BYTE      TIM2_CR0
      000000A6H   SFRSYM    DATA     WORD      TIM3__ARR
      0000009CH   SFRSYM    DATA     BYTE      TIM3_CR0
      000000A9H   SFRSYM    DATA     BYTE      TIM2_CR1
      00000096H   SFRSYM    DATA     WORD      TIM4__ARR
      0000009EH   SFRSYM    DATA     BYTE      TIM4_CR0
      0000009DH   SFRSYM    DATA     BYTE      TIM3_CR1
      000000C4H   SFRSYM    DATA     BYTE      CAN_FIR0
      000000F8H   SFRSYM    DATA     BYTE      DRV_OUT
      0000009FH   SFRSYM    DATA     BYTE      TIM4_CR1
      000000C5H   SFRSYM    DATA     BYTE      CAN_FIR1
      000000C6H   SFRSYM    DATA     BYTE      CAN_FIR2
      000000E0H   SFRSYM    DATA     BYTE      ACC
      000000DBH   SFRSYM    DATA     BYTE      LVSR
      000000C7H   SFRSYM    DATA     BYTE      CAN_FIR3
      000000A8H.4 SFRSYM    DATA     BIT       ES0
      00000085H   SFRSYM    DATA     BYTE      FLA_CR
      000000CAH   SFRSYM    DATA     BYTE      CAN_FMR0
      0000008AH   SFRSYM    DATA     BYTE      IP0
      000000CBH   SFRSYM    DATA     BYTE      CAN_FMR1
      0000008BH   SFRSYM    DATA     BYTE      IP1
      000000CCH   SFRSYM    DATA     BYTE      CAN_FMR2
      0000008CH   SFRSYM    DATA     BYTE      IP2
      000000CDH   SFRSYM    DATA     BYTE      CAN_FMR3
      000000B7H   SFRSYM    DATA     BYTE      CAN_BTR0
      00000098H.2 SFRSYM    DATA     BIT       RB8
      0000008DH   SFRSYM    DATA     BYTE      IP3
      000000C2H   SFRSYM    DATA     BYTE      CAN_BTR1
      000000A8H.0 SFRSYM    DATA     BIT       EX0
      000000C3H   SFRSYM    DATA     BYTE      CAN_BTR2
      00000098H.3 SFRSYM    DATA     BIT       TB8
      000000A8H.2 SFRSYM    DATA     BIT       EX1
      000000D0H.0 SFRSYM    DATA     BIT       P
      000000BCH   SFRSYM    DATA     BYTE      LIN_ID
      000000D8H   SFRSYM    DATA     BYTE      UT2_CR
      00000089H   SFRSYM    DATA     BYTE      UT2_DR
      00000098H.5 SFRSYM    DATA     BIT       SM2
      000000D0H.3 SFRSYM    DATA     BIT       RS0
      000000D0H.4 SFRSYM    DATA     BIT       RS1
      000000B3H   SFRSYM    DATA     BYTE      CAN_SR
      000000B9H   SFRSYM    DATA     BYTE      LIN_CR
      000000C1H   SFRSYM    DATA     BYTE      MDU_CR
      000000F8H.7 SFRSYM    DATA     BIT       MOE
      000000BEH   SFRSYM    DATA     WORD      LIN_BAUD
      000000A8H.5 SFRSYM    DATA     BIT       MCDIE
      00000088H.6 SFRSYM    DATA     BIT       MCDIF
      00000098H.4 SFRSYM    DATA     BIT       REN
      000000D7H   SFRSYM    DATA     BYTE      CMP_SR
      000000BAH   SFRSYM    DATA     BYTE      LIN_SR
      000000D8H.6 SFRSYM    DATA     BIT       UT2MOD0
      000000D8H.7 SFRSYM    DATA     BIT       UT2MOD1
      000000D1H   SFRSYM    DATA     BYTE      P1_IE
      000000D2H   SFRSYM    DATA     BYTE      P1_IF
LX51 LINKER/LOCATER V4.66.87.0                                                        06/22/2026  16:51:37  PAGE 49


      000000D3H   SFRSYM    DATA     BYTE      P4_IE
      000000D4H   SFRSYM    DATA     BYTE      P4_IF
      000000ACH   SFRSYM    DATA     WORD      TIM2__DR
      000000FCH   SFRSYM    DATA     BYTE      P0_OE
      000000A4H   SFRSYM    DATA     WORD      TIM3__DR
      000000FDH   SFRSYM    DATA     BYTE      P1_OE
      00000094H   SFRSYM    DATA     WORD      TIM4__DR
      000000D0H.5 SFRSYM    DATA     BIT       F0
      000000FEH   SFRSYM    DATA     BYTE      P2_OE
      000000D0H.1 SFRSYM    DATA     BIT       F1
      000000FFH   SFRSYM    DATA     BYTE      P3_OE
      00000080H.0 SFRSYM    DATA     BIT       GP00
      000000D8H.0 SFRSYM    DATA     BIT       UT2RI
      000000E9H   SFRSYM    DATA     BYTE      P4_OE
      00000090H.0 SFRSYM    DATA     BIT       GP10
      00000080H.1 SFRSYM    DATA     BIT       GP01
      000000B1H   SFRSYM    DATA     BYTE      CAN_CR0
      000000A8H.6 SFRSYM    DATA     BIT       RTCIE
      000000A0H.0 SFRSYM    DATA     BIT       GP20
      00000090H.1 SFRSYM    DATA     BIT       GP11
      00000080H.2 SFRSYM    DATA     BIT       GP02
      000000B2H   SFRSYM    DATA     BYTE      CAN_CR1
      000000D8H.1 SFRSYM    DATA     BIT       UT2TI
      000000B0H.0 SFRSYM    DATA     BIT       GP30
      000000A0H.1 SFRSYM    DATA     BIT       GP21
      00000090H.2 SFRSYM    DATA     BIT       GP12
      00000080H.3 SFRSYM    DATA     BIT       GP03
      000000B5H   SFRSYM    DATA     BYTE      CAN_CR2
      000000A8H.1 SFRSYM    DATA     BIT       TSDIE
      000000D0H   SFRSYM    DATA     BYTE      PSW
      000000B0H.1 SFRSYM    DATA     BIT       GP31
      000000A0H.2 SFRSYM    DATA     BIT       GP22
      00000090H.3 SFRSYM    DATA     BIT       GP13
      00000080H.4 SFRSYM    DATA     BIT       GP04
      000000A8H.3 SFRSYM    DATA     BIT       SPIIE
      00000088H.5 SFRSYM    DATA     BIT       TSDIF
      000000B8H.1 SFRSYM    DATA     BIT       GP41
      000000B0H.2 SFRSYM    DATA     BIT       GP32
      000000A0H.3 SFRSYM    DATA     BIT       GP23
      00000090H.4 SFRSYM    DATA     BIT       GP14
      00000080H.5 SFRSYM    DATA     BIT       GP05
      000000B8H.2 SFRSYM    DATA     BIT       GP42
      000000B0H.3 SFRSYM    DATA     BIT       GP33
      000000A0H.4 SFRSYM    DATA     BIT       GP24
      00000090H.5 SFRSYM    DATA     BIT       GP15
      00000080H.6 SFRSYM    DATA     BIT       GP06
      00000088H.0 SFRSYM    DATA     BIT       IT00

      010026D3H   BLOCK     CODE     ---       LVL=0
      ---         BLOCKEND  ---      ---       LVL=0

      01000006H   BLOCK     CODE     ---       LVL=0
      01000006H   LINE      CODE     ---       #305
      01000006H   LINE      CODE     ---       #306
      01000006H   LINE      CODE     ---       #327
      ---         BLOCKEND  ---      ---       LVL=0

      01000FF3H   BLOCK     CODE     ---       LVL=0
      01000FF3H   LINE      CODE     ---       #338
      01000FF3H   LINE      CODE     ---       #339
      01000FF3H   LINE      CODE     ---       #340
      01000FFCH   LINE      CODE     ---       #341
      01000FFCH   LINE      CODE     ---       #343
      0100101CH   LINE      CODE     ---       #345
      0100101CH   LINE      CODE     ---       #346
LX51 LINKER/LOCATER V4.66.87.0                                                        06/22/2026  16:51:37  PAGE 50


      0100102BH   LINE      CODE     ---       #347
      0100102BH   LINE      CODE     ---       #348
      0100102EH   LINE      CODE     ---       #349
      01001030H   LINE      CODE     ---       #351
      01001030H   LINE      CODE     ---       #352
      01001037H   LINE      CODE     ---       #355
      01001037H   LINE      CODE     ---       #356
      01001039H   LINE      CODE     ---       #357
      01001039H   LINE      CODE     ---       #358
      0100103FH   LINE      CODE     ---       #359
      0100103FH   LINE      CODE     ---       #360
      0100103FH   LINE      CODE     ---       #363
      01001045H   LINE      CODE     ---       #364
      01001045H   LINE      CODE     ---       #365
      01001056H   LINE      CODE     ---       #366
      01001056H   LINE      CODE     ---       #367
      0100105CH   LINE      CODE     ---       #369
      0100107BH   LINE      CODE     ---       #370
      0100107BH   LINE      CODE     ---       #371
      01001082H   LINE      CODE     ---       #372
      01001085H   LINE      CODE     ---       #373
      01001085H   LINE      CODE     ---       #374
      01001087H   LINE      CODE     ---       #375
      01001087H   LINE      CODE     ---       #376
      01001087H   LINE      CODE     ---       #377
      01001087H   LINE      CODE     ---       #378
      01001087H   LINE      CODE     ---       #381
      0100108DH   LINE      CODE     ---       #382
      0100108DH   LINE      CODE     ---       #383
      0100109CH   LINE      CODE     ---       #384
      0100109CH   LINE      CODE     ---       #385
      0100109FH   LINE      CODE     ---       #386
      010010A1H   LINE      CODE     ---       #388
      010010A1H   LINE      CODE     ---       #389
      010010A7H   LINE      CODE     ---       #391
      010010ADH   LINE      CODE     ---       #392
      010010ADH   LINE      CODE     ---       #393
      010010AFH   LINE      CODE     ---       #394
      010010AFH   LINE      CODE     ---       #396
      010010B6H   LINE      CODE     ---       #397
      010010B9H   LINE      CODE     ---       #398
      010010B9H   LINE      CODE     ---       #399
      010010BBH   LINE      CODE     ---       #400
      010010BBH   LINE      CODE     ---       #401
      010010BBH   LINE      CODE     ---       #402
      010010BBH   LINE      CODE     ---       #405
      010010C1H   LINE      CODE     ---       #406
      010010C1H   LINE      CODE     ---       #407
      010010D0H   LINE      CODE     ---       #408
      010010D0H   LINE      CODE     ---       #409
      010010D3H   LINE      CODE     ---       #410
      010010D5H   LINE      CODE     ---       #412
      010010D5H   LINE      CODE     ---       #413
      010010DBH   LINE      CODE     ---       #415
      010010E1H   LINE      CODE     ---       #416
      010010E1H   LINE      CODE     ---       #418
      010010E4H   LINE      CODE     ---       #419
      010010E4H   LINE      CODE     ---       #421
      010010EBH   LINE      CODE     ---       #423
      010010EEH   LINE      CODE     ---       #424
      010010EEH   LINE      CODE     ---       #425
      010010F0H   LINE      CODE     ---       #426
      010010F2H   LINE      CODE     ---       #427
      010010F2H   LINE      CODE     ---       #429
      010010F2H   LINE      CODE     ---       #430
LX51 LINKER/LOCATER V4.66.87.0                                                        06/22/2026  16:51:37  PAGE 51


      010010F2H   LINE      CODE     ---       #433
      010010FEH   LINE      CODE     ---       #434
      010010FEH   LINE      CODE     ---       #435
      0100110DH   LINE      CODE     ---       #436
      0100110DH   LINE      CODE     ---       #437
      01001114H   LINE      CODE     ---       #438
      01001114H   LINE      CODE     ---       #440
      01001114H   LINE      CODE     ---       #441
      0100111AH   LINE      CODE     ---       #443
      01001120H   LINE      CODE     ---       #444
      01001120H   LINE      CODE     ---       #445
      01001122H   LINE      CODE     ---       #446
      01001122H   LINE      CODE     ---       #447
      01001125H   LINE      CODE     ---       #448
      01001125H   LINE      CODE     ---       #449
      01001128H   LINE      CODE     ---       #450
      01001128H   LINE      CODE     ---       #451
      0100112FH   LINE      CODE     ---       #454
      0100112FH   LINE      CODE     ---       #455
      0100112FH   LINE      CODE     ---       #456
      0100112FH   LINE      CODE     ---       #457
      ---         BLOCKEND  ---      ---       LVL=0

      ---         MODULE    ---      ---       SLEEP
      000000B8H.3 SFRSYM    DATA     BIT       GP43
      000000B0H.4 SFRSYM    DATA     BIT       GP34
      000000A0H.5 SFRSYM    DATA     BIT       GP25
      00000090H.6 SFRSYM    DATA     BIT       GP16
      00000080H.7 SFRSYM    DATA     BIT       GP07
      00000088H.1 SFRSYM    DATA     BIT       IT01
      00000088H.3 SFRSYM    DATA     BIT       IT10
      000000B8H.4 SFRSYM    DATA     BIT       GP44
      000000B0H.5 SFRSYM    DATA     BIT       GP35
      000000A0H.6 SFRSYM    DATA     BIT       GP26
      00000090H.7 SFRSYM    DATA     BIT       GP17
      00000080H   SFRSYM    DATA     BYTE      P0
      00000088H.4 SFRSYM    DATA     BIT       IT11
      000000C9H   SFRSYM    DATA     BYTE      RST_SR
      000000D9H   SFRSYM    DATA     BYTE      EVT_FILT
      000000B8H.5 SFRSYM    DATA     BIT       GP45
      000000B0H.6 SFRSYM    DATA     BIT       GP36
      000000A0H.7 SFRSYM    DATA     BIT       GP27
      00000090H   SFRSYM    DATA     BYTE      P1
      000000BDH   SFRSYM    DATA     BYTE      LIN_SIZE
      000000B8H.6 SFRSYM    DATA     BIT       GP46
      000000B0H.7 SFRSYM    DATA     BIT       GP37
      000000A0H   SFRSYM    DATA     BYTE      P2
      000000B0H   SFRSYM    DATA     BYTE      P3
      000000B8H   SFRSYM    DATA     BYTE      P4
      000000CEH   SFRSYM    DATA     BYTE      CAN_ALC
      000000D0H.6 SFRSYM    DATA     BIT       AC
      000000A8H.7 SFRSYM    DATA     BIT       EA
      000000D5H   SFRSYM    DATA     BYTE      CMP_CR0
      000000D6H   SFRSYM    DATA     BYTE      CMP_CR1
      000000DAH   SFRSYM    DATA     BYTE      CMP_CR2
      000000DCH   SFRSYM    DATA     BYTE      CMP_CR3
      000000F8H.0 SFRSYM    DATA     BIT       OISUH
      000000E1H   SFRSYM    DATA     BYTE      CMP_CR4
      000000F8H.2 SFRSYM    DATA     BIT       OISVH
      000000F8H.4 SFRSYM    DATA     BIT       OISWH
      000000F8H.1 SFRSYM    DATA     BIT       OISUL
      000000DFH   SFRSYM    DATA     BYTE      CAN_REC
      000000A8H   SFRSYM    DATA     BYTE      IE
      000000F8H.3 SFRSYM    DATA     BIT       OISVL
      000000F9H   SFRSYM    DATA     BYTE      PI_CR
LX51 LINKER/LOCATER V4.66.87.0                                                        06/22/2026  16:51:37  PAGE 52


      000000F8H.5 SFRSYM    DATA     BIT       OISWL
      000000DEH   SFRSYM    DATA     BYTE      CAN_TEC
      000000B4H   SFRSYM    DATA     BYTE      CAN_IER
      000000B6H   SFRSYM    DATA     BYTE      CAN_IFR
      000000AAH   SFRSYM    DATA     WORD      TIM2__CNTR
      000000DDH   SFRSYM    DATA     BYTE      CAN_LIM
      000000A2H   SFRSYM    DATA     WORD      TIM3__CNTR
      000000F1H   SFRSYM    DATA     BYTE      OSC_CFG
      000000E2H   SFRSYM    DATA     BYTE      HALL_CR
      00000092H   SFRSYM    DATA     WORD      TIM4__CNTR
      00000098H.0 SFRSYM    DATA     BIT       RI
      00000098H.6 SFRSYM    DATA     BIT       UT_MOD0
      00000098H.7 SFRSYM    DATA     BIT       UT_MOD1
      000000D0H.7 SFRSYM    DATA     BIT       CY
      00000098H.1 SFRSYM    DATA     BIT       TI
      00000084H   SFRSYM    DATA     BYTE      FLA_KEY
      000000CFH   SFRSYM    DATA     BYTE      CAN_ESR
      00000098H   SFRSYM    DATA     BYTE      UT_CR
      00000099H   SFRSYM    DATA     BYTE      UT_DR
      000000D0H.2 SFRSYM    DATA     BIT       OV
      0000009AH   SFRSYM    DATA     WORD      UT_BAUD
      000000D8H.2 SFRSYM    DATA     BIT       UT2RB8
      000000D8H.3 SFRSYM    DATA     BIT       UT2TB8
      000000BBH   SFRSYM    DATA     BYTE      LIN_CSR
      000000D8H.5 SFRSYM    DATA     BIT       UT2SM2
      00000087H   SFRSYM    DATA     BYTE      PCON
      00000088H   SFRSYM    DATA     BYTE      TCON
      00000082H   SFRSYM    DATA     WORD      DPTR
      00000088H.2 SFRSYM    DATA     BIT       IF0
      000000D8H.4 SFRSYM    DATA     BIT       UT2REN
      000000AEH   SFRSYM    DATA     WORD      TIM2__ARR
      000000A1H   SFRSYM    DATA     BYTE      TIM2_CR0
      000000A6H   SFRSYM    DATA     WORD      TIM3__ARR
      0000009CH   SFRSYM    DATA     BYTE      TIM3_CR0
      000000A9H   SFRSYM    DATA     BYTE      TIM2_CR1
      00000096H   SFRSYM    DATA     WORD      TIM4__ARR
      0000009EH   SFRSYM    DATA     BYTE      TIM4_CR0
      0000009DH   SFRSYM    DATA     BYTE      TIM3_CR1
      000000C4H   SFRSYM    DATA     BYTE      CAN_FIR0
      000000F8H   SFRSYM    DATA     BYTE      DRV_OUT
      0000009FH   SFRSYM    DATA     BYTE      TIM4_CR1
      000000C5H   SFRSYM    DATA     BYTE      CAN_FIR1
      000000C6H   SFRSYM    DATA     BYTE      CAN_FIR2
      000000E0H   SFRSYM    DATA     BYTE      ACC
      000000DBH   SFRSYM    DATA     BYTE      LVSR
      000000C7H   SFRSYM    DATA     BYTE      CAN_FIR3
      000000A8H.4 SFRSYM    DATA     BIT       ES0
      00000085H   SFRSYM    DATA     BYTE      FLA_CR
      000000CAH   SFRSYM    DATA     BYTE      CAN_FMR0
      0000008AH   SFRSYM    DATA     BYTE      IP0
      000000CBH   SFRSYM    DATA     BYTE      CAN_FMR1
      0000008BH   SFRSYM    DATA     BYTE      IP1
      000000CCH   SFRSYM    DATA     BYTE      CAN_FMR2
      0000008CH   SFRSYM    DATA     BYTE      IP2
      000000CDH   SFRSYM    DATA     BYTE      CAN_FMR3
      000000B7H   SFRSYM    DATA     BYTE      CAN_BTR0
      00000098H.2 SFRSYM    DATA     BIT       RB8
      0000008DH   SFRSYM    DATA     BYTE      IP3
      000000C2H   SFRSYM    DATA     BYTE      CAN_BTR1
      000000A8H.0 SFRSYM    DATA     BIT       EX0
      000000C3H   SFRSYM    DATA     BYTE      CAN_BTR2
      00000098H.3 SFRSYM    DATA     BIT       TB8
      000000A8H.2 SFRSYM    DATA     BIT       EX1
      000000D0H.0 SFRSYM    DATA     BIT       P
      000000BCH   SFRSYM    DATA     BYTE      LIN_ID
LX51 LINKER/LOCATER V4.66.87.0                                                        06/22/2026  16:51:37  PAGE 53


      000000D8H   SFRSYM    DATA     BYTE      UT2_CR
      00000089H   SFRSYM    DATA     BYTE      UT2_DR
      00000098H.5 SFRSYM    DATA     BIT       SM2
      000000D0H.3 SFRSYM    DATA     BIT       RS0
      000000D0H.4 SFRSYM    DATA     BIT       RS1
      000000B3H   SFRSYM    DATA     BYTE      CAN_SR
      000000B9H   SFRSYM    DATA     BYTE      LIN_CR
      000000C1H   SFRSYM    DATA     BYTE      MDU_CR
      000000F8H.7 SFRSYM    DATA     BIT       MOE
      000000BEH   SFRSYM    DATA     WORD      LIN_BAUD
      000000A8H.5 SFRSYM    DATA     BIT       MCDIE
      00000088H.6 SFRSYM    DATA     BIT       MCDIF
      00000098H.4 SFRSYM    DATA     BIT       REN
      000000D7H   SFRSYM    DATA     BYTE      CMP_SR
      000000BAH   SFRSYM    DATA     BYTE      LIN_SR
      000000D8H.6 SFRSYM    DATA     BIT       UT2MOD0
      000000D8H.7 SFRSYM    DATA     BIT       UT2MOD1
      000000D1H   SFRSYM    DATA     BYTE      P1_IE
      000000D2H   SFRSYM    DATA     BYTE      P1_IF
      000000D3H   SFRSYM    DATA     BYTE      P4_IE
      000000D4H   SFRSYM    DATA     BYTE      P4_IF
      000000ACH   SFRSYM    DATA     WORD      TIM2__DR
      000000FCH   SFRSYM    DATA     BYTE      P0_OE
      000000A4H   SFRSYM    DATA     WORD      TIM3__DR
      000000FDH   SFRSYM    DATA     BYTE      P1_OE
      00000094H   SFRSYM    DATA     WORD      TIM4__DR
      000000D0H.5 SFRSYM    DATA     BIT       F0
      000000FEH   SFRSYM    DATA     BYTE      P2_OE
      000000D0H.1 SFRSYM    DATA     BIT       F1
      000000FFH   SFRSYM    DATA     BYTE      P3_OE
      00000080H.0 SFRSYM    DATA     BIT       GP00
      000000D8H.0 SFRSYM    DATA     BIT       UT2RI
      000000E9H   SFRSYM    DATA     BYTE      P4_OE
      00000090H.0 SFRSYM    DATA     BIT       GP10
      00000080H.1 SFRSYM    DATA     BIT       GP01
      000000B1H   SFRSYM    DATA     BYTE      CAN_CR0
      000000A8H.6 SFRSYM    DATA     BIT       RTCIE
      000000A0H.0 SFRSYM    DATA     BIT       GP20
      00000090H.1 SFRSYM    DATA     BIT       GP11
      00000080H.2 SFRSYM    DATA     BIT       GP02
      000000B2H   SFRSYM    DATA     BYTE      CAN_CR1
      000000D8H.1 SFRSYM    DATA     BIT       UT2TI
      000000B0H.0 SFRSYM    DATA     BIT       GP30
      000000A0H.1 SFRSYM    DATA     BIT       GP21
      00000090H.2 SFRSYM    DATA     BIT       GP12
      00000080H.3 SFRSYM    DATA     BIT       GP03
      000000B5H   SFRSYM    DATA     BYTE      CAN_CR2
      000000A8H.1 SFRSYM    DATA     BIT       TSDIE
      000000D0H   SFRSYM    DATA     BYTE      PSW
      000000B0H.1 SFRSYM    DATA     BIT       GP31
      000000A0H.2 SFRSYM    DATA     BIT       GP22
      00000090H.3 SFRSYM    DATA     BIT       GP13
      00000080H.4 SFRSYM    DATA     BIT       GP04
      000000A8H.3 SFRSYM    DATA     BIT       SPIIE
      00000088H.5 SFRSYM    DATA     BIT       TSDIF
      000000B8H.1 SFRSYM    DATA     BIT       GP41
      000000B0H.2 SFRSYM    DATA     BIT       GP32
      000000A0H.3 SFRSYM    DATA     BIT       GP23
      00000090H.4 SFRSYM    DATA     BIT       GP14
      00000080H.5 SFRSYM    DATA     BIT       GP05
      000000B8H.2 SFRSYM    DATA     BIT       GP42
      000000B0H.3 SFRSYM    DATA     BIT       GP33
      000000A0H.4 SFRSYM    DATA     BIT       GP24
      00000090H.5 SFRSYM    DATA     BIT       GP15
      00000080H.6 SFRSYM    DATA     BIT       GP06
LX51 LINKER/LOCATER V4.66.87.0                                                        06/22/2026  16:51:37  PAGE 54


      00000088H.0 SFRSYM    DATA     BIT       IT00
      020003E1H   SYMBOL    XDATA    WORD      SleepDelayCout
      020003E3H   SYMBOL    XDATA    BYTE      SleepFlag

      ---         MODULE    ---      ---       HALL_V0
      02000388H   PUBLIC    XDATA    WORD      Degree_set
      0200037CH   PUBLIC    XDATA    ---       Hall_Theta_Arr
      0200037AH   PUBLIC    XDATA    WORD      KKK
      0000007BH   PUBLIC    DATA     INT       ErRTheStep
      00000021H   PUBLIC    DATA     ---       hallPara
      0200036EH   PUBLIC    XDATA    ---       HallLossArray
      01002CA8H   PUBLIC    CONST    ---       Hall_CLoss_CWNext
      01002CA1H   PUBLIC    CONST    ---       Hall_BLoss_CWNext
      01002C9AH   PUBLIC    CONST    ---       Hall_ALoss_CWNext
      01002C93H   PUBLIC    CONST    ---       Hall_CWNext
      01002810H   PUBLIC    CODE     ---       UpdateHallMode
      01001251H   PUBLIC    CODE     ---       _HallTimerUpdate
      01001D46H   PUBLIC    CODE     ---       _HallCalculation
      010015A5H   PUBLIC    CODE     ---       _HallUpdateProcess
      010023CBH   PUBLIC    CODE     ---       ThetaCalculation
      01002C76H   PUBLIC    CODE     ---       SectorThetaCalculation
      01001C02H   PUBLIC    CODE     ---       UpdateHallFRAndLossStatus
      01002A71H   PUBLIC    CODE     ---       _HallUpdateDetect
      01002608H   PUBLIC    CODE     ---       _GetHallStatus
      01002C25H   PUBLIC    CODE     ---       HallOverFlowClear
      0100000EH   PUBLIC    CODE     ---       _HallThetaInit
      0200033FH   PUBLIC    XDATA    BYTE      ?_HallInit?BYTE
      01002853H   PUBLIC    CODE     ---       _HallInit
      000000B8H.3 SFRSYM    DATA     BIT       GP43
      000000B0H.4 SFRSYM    DATA     BIT       GP34
      000000A0H.5 SFRSYM    DATA     BIT       GP25
      00000090H.6 SFRSYM    DATA     BIT       GP16
      00000080H.7 SFRSYM    DATA     BIT       GP07
      00000088H.1 SFRSYM    DATA     BIT       IT01
      00000088H.3 SFRSYM    DATA     BIT       IT10
      000000B8H.4 SFRSYM    DATA     BIT       GP44
      000000B0H.5 SFRSYM    DATA     BIT       GP35
      000000A0H.6 SFRSYM    DATA     BIT       GP26
      00000090H.7 SFRSYM    DATA     BIT       GP17
      00000080H   SFRSYM    DATA     BYTE      P0
      00000088H.4 SFRSYM    DATA     BIT       IT11
      000000C9H   SFRSYM    DATA     BYTE      RST_SR
      000000D9H   SFRSYM    DATA     BYTE      EVT_FILT
      000000B8H.5 SFRSYM    DATA     BIT       GP45
      000000B0H.6 SFRSYM    DATA     BIT       GP36
      000000A0H.7 SFRSYM    DATA     BIT       GP27
      00000090H   SFRSYM    DATA     BYTE      P1
      000000BDH   SFRSYM    DATA     BYTE      LIN_SIZE
      000000B8H.6 SFRSYM    DATA     BIT       GP46
      000000B0H.7 SFRSYM    DATA     BIT       GP37
      000000A0H   SFRSYM    DATA     BYTE      P2
      000000B0H   SFRSYM    DATA     BYTE      P3
      000000B8H   SFRSYM    DATA     BYTE      P4
      000000CEH   SFRSYM    DATA     BYTE      CAN_ALC
      000000D0H.6 SFRSYM    DATA     BIT       AC
      000000A8H.7 SFRSYM    DATA     BIT       EA
      000000D5H   SFRSYM    DATA     BYTE      CMP_CR0
      000000D6H   SFRSYM    DATA     BYTE      CMP_CR1
      000000DAH   SFRSYM    DATA     BYTE      CMP_CR2
      000000DCH   SFRSYM    DATA     BYTE      CMP_CR3
      000000F8H.0 SFRSYM    DATA     BIT       OISUH
      000000E1H   SFRSYM    DATA     BYTE      CMP_CR4
      000000F8H.2 SFRSYM    DATA     BIT       OISVH
      000000F8H.4 SFRSYM    DATA     BIT       OISWH
      000000F8H.1 SFRSYM    DATA     BIT       OISUL
LX51 LINKER/LOCATER V4.66.87.0                                                        06/22/2026  16:51:37  PAGE 55


      000000DFH   SFRSYM    DATA     BYTE      CAN_REC
      000000A8H   SFRSYM    DATA     BYTE      IE
      000000F8H.3 SFRSYM    DATA     BIT       OISVL
      000000F9H   SFRSYM    DATA     BYTE      PI_CR
      000000F8H.5 SFRSYM    DATA     BIT       OISWL
      000000DEH   SFRSYM    DATA     BYTE      CAN_TEC
      000000B4H   SFRSYM    DATA     BYTE      CAN_IER
      000000B6H   SFRSYM    DATA     BYTE      CAN_IFR
      000000AAH   SFRSYM    DATA     WORD      TIM2__CNTR
      000000DDH   SFRSYM    DATA     BYTE      CAN_LIM
      000000A2H   SFRSYM    DATA     WORD      TIM3__CNTR
      000000F1H   SFRSYM    DATA     BYTE      OSC_CFG
      000000E2H   SFRSYM    DATA     BYTE      HALL_CR
      00000092H   SFRSYM    DATA     WORD      TIM4__CNTR
      00000098H.0 SFRSYM    DATA     BIT       RI
      00000098H.6 SFRSYM    DATA     BIT       UT_MOD0
      00000098H.7 SFRSYM    DATA     BIT       UT_MOD1
      000000D0H.7 SFRSYM    DATA     BIT       CY
      00000098H.1 SFRSYM    DATA     BIT       TI
      00000084H   SFRSYM    DATA     BYTE      FLA_KEY
      000000CFH   SFRSYM    DATA     BYTE      CAN_ESR
      00000098H   SFRSYM    DATA     BYTE      UT_CR
      00000099H   SFRSYM    DATA     BYTE      UT_DR
      000000D0H.2 SFRSYM    DATA     BIT       OV
      0000009AH   SFRSYM    DATA     WORD      UT_BAUD
      000000D8H.2 SFRSYM    DATA     BIT       UT2RB8
      000000D8H.3 SFRSYM    DATA     BIT       UT2TB8
      000000BBH   SFRSYM    DATA     BYTE      LIN_CSR
      000000D8H.5 SFRSYM    DATA     BIT       UT2SM2
      00000087H   SFRSYM    DATA     BYTE      PCON
      00000088H   SFRSYM    DATA     BYTE      TCON
      00000082H   SFRSYM    DATA     WORD      DPTR
      00000088H.2 SFRSYM    DATA     BIT       IF0
      000000D8H.4 SFRSYM    DATA     BIT       UT2REN
      000000AEH   SFRSYM    DATA     WORD      TIM2__ARR
      000000A1H   SFRSYM    DATA     BYTE      TIM2_CR0
      000000A6H   SFRSYM    DATA     WORD      TIM3__ARR
      0000009CH   SFRSYM    DATA     BYTE      TIM3_CR0
      000000A9H   SFRSYM    DATA     BYTE      TIM2_CR1
      00000096H   SFRSYM    DATA     WORD      TIM4__ARR
      0000009EH   SFRSYM    DATA     BYTE      TIM4_CR0
      0000009DH   SFRSYM    DATA     BYTE      TIM3_CR1
      000000C4H   SFRSYM    DATA     BYTE      CAN_FIR0
      000000F8H   SFRSYM    DATA     BYTE      DRV_OUT
      0000009FH   SFRSYM    DATA     BYTE      TIM4_CR1
      000000C5H   SFRSYM    DATA     BYTE      CAN_FIR1
      000000C6H   SFRSYM    DATA     BYTE      CAN_FIR2
      000000E0H   SFRSYM    DATA     BYTE      ACC
      000000DBH   SFRSYM    DATA     BYTE      LVSR
      000000C7H   SFRSYM    DATA     BYTE      CAN_FIR3
      000000A8H.4 SFRSYM    DATA     BIT       ES0
      00000085H   SFRSYM    DATA     BYTE      FLA_CR
      000000CAH   SFRSYM    DATA     BYTE      CAN_FMR0
      0000008AH   SFRSYM    DATA     BYTE      IP0
      000000CBH   SFRSYM    DATA     BYTE      CAN_FMR1
      0000008BH   SFRSYM    DATA     BYTE      IP1
      000000CCH   SFRSYM    DATA     BYTE      CAN_FMR2
      0000008CH   SFRSYM    DATA     BYTE      IP2
      000000CDH   SFRSYM    DATA     BYTE      CAN_FMR3
      000000B7H   SFRSYM    DATA     BYTE      CAN_BTR0
      00000098H.2 SFRSYM    DATA     BIT       RB8
      0000008DH   SFRSYM    DATA     BYTE      IP3
      000000C2H   SFRSYM    DATA     BYTE      CAN_BTR1
      000000A8H.0 SFRSYM    DATA     BIT       EX0
      000000C3H   SFRSYM    DATA     BYTE      CAN_BTR2
LX51 LINKER/LOCATER V4.66.87.0                                                        06/22/2026  16:51:37  PAGE 56


      00000098H.3 SFRSYM    DATA     BIT       TB8
      000000A8H.2 SFRSYM    DATA     BIT       EX1
      000000D0H.0 SFRSYM    DATA     BIT       P
      000000BCH   SFRSYM    DATA     BYTE      LIN_ID
      000000D8H   SFRSYM    DATA     BYTE      UT2_CR
      00000089H   SFRSYM    DATA     BYTE      UT2_DR
      00000098H.5 SFRSYM    DATA     BIT       SM2
      000000D0H.3 SFRSYM    DATA     BIT       RS0
      000000D0H.4 SFRSYM    DATA     BIT       RS1
      000000B3H   SFRSYM    DATA     BYTE      CAN_SR
      000000B9H   SFRSYM    DATA     BYTE      LIN_CR
      000000C1H   SFRSYM    DATA     BYTE      MDU_CR
      000000F8H.7 SFRSYM    DATA     BIT       MOE
      000000BEH   SFRSYM    DATA     WORD      LIN_BAUD
      000000A8H.5 SFRSYM    DATA     BIT       MCDIE
      00000088H.6 SFRSYM    DATA     BIT       MCDIF
      00000098H.4 SFRSYM    DATA     BIT       REN
      000000D7H   SFRSYM    DATA     BYTE      CMP_SR
      000000BAH   SFRSYM    DATA     BYTE      LIN_SR
      000000D8H.6 SFRSYM    DATA     BIT       UT2MOD0
      000000D8H.7 SFRSYM    DATA     BIT       UT2MOD1
      000000D1H   SFRSYM    DATA     BYTE      P1_IE
      000000D2H   SFRSYM    DATA     BYTE      P1_IF
      000000D3H   SFRSYM    DATA     BYTE      P4_IE
      000000D4H   SFRSYM    DATA     BYTE      P4_IF
      000000ACH   SFRSYM    DATA     WORD      TIM2__DR
      000000FCH   SFRSYM    DATA     BYTE      P0_OE
      000000A4H   SFRSYM    DATA     WORD      TIM3__DR
      000000FDH   SFRSYM    DATA     BYTE      P1_OE
      00000094H   SFRSYM    DATA     WORD      TIM4__DR
      000000D0H.5 SFRSYM    DATA     BIT       F0
      000000FEH   SFRSYM    DATA     BYTE      P2_OE
      000000D0H.1 SFRSYM    DATA     BIT       F1
      000000FFH   SFRSYM    DATA     BYTE      P3_OE
      00000080H.0 SFRSYM    DATA     BIT       GP00
      000000D8H.0 SFRSYM    DATA     BIT       UT2RI
      000000E9H   SFRSYM    DATA     BYTE      P4_OE
      00000090H.0 SFRSYM    DATA     BIT       GP10
      00000080H.1 SFRSYM    DATA     BIT       GP01
      000000B1H   SFRSYM    DATA     BYTE      CAN_CR0
      000000A8H.6 SFRSYM    DATA     BIT       RTCIE
      000000A0H.0 SFRSYM    DATA     BIT       GP20
      00000090H.1 SFRSYM    DATA     BIT       GP11
      00000080H.2 SFRSYM    DATA     BIT       GP02
      000000B2H   SFRSYM    DATA     BYTE      CAN_CR1
      000000D8H.1 SFRSYM    DATA     BIT       UT2TI
      000000B0H.0 SFRSYM    DATA     BIT       GP30
      000000A0H.1 SFRSYM    DATA     BIT       GP21
      00000090H.2 SFRSYM    DATA     BIT       GP12
      00000080H.3 SFRSYM    DATA     BIT       GP03
      000000B5H   SFRSYM    DATA     BYTE      CAN_CR2
      000000A8H.1 SFRSYM    DATA     BIT       TSDIE
      000000D0H   SFRSYM    DATA     BYTE      PSW
      000000B0H.1 SFRSYM    DATA     BIT       GP31
      000000A0H.2 SFRSYM    DATA     BIT       GP22
      00000090H.3 SFRSYM    DATA     BIT       GP13
      00000080H.4 SFRSYM    DATA     BIT       GP04
      000000A8H.3 SFRSYM    DATA     BIT       SPIIE
      00000088H.5 SFRSYM    DATA     BIT       TSDIF
      000000B8H.1 SFRSYM    DATA     BIT       GP41
      000000B0H.2 SFRSYM    DATA     BIT       GP32
      000000A0H.3 SFRSYM    DATA     BIT       GP23
      00000090H.4 SFRSYM    DATA     BIT       GP14
      00000080H.5 SFRSYM    DATA     BIT       GP05
      000000B8H.2 SFRSYM    DATA     BIT       GP42
LX51 LINKER/LOCATER V4.66.87.0                                                        06/22/2026  16:51:37  PAGE 57


      000000B0H.3 SFRSYM    DATA     BIT       GP33
      000000A0H.4 SFRSYM    DATA     BIT       GP24
      00000090H.5 SFRSYM    DATA     BIT       GP15
      00000080H.6 SFRSYM    DATA     BIT       GP06
      00000088H.0 SFRSYM    DATA     BIT       IT00

      01002905H   BLOCK     CODE     ---       LVL=0
      ---         BLOCKEND  ---      ---       LVL=0

      01002853H   BLOCK     CODE     ---       LVL=0
      00000007H   SYMBOL    DATA     BYTE      installMode
      00000005H   SYMBOL    DATA     BYTE      phaseMode
      00000002H   SYMBOL    DATA     INT       compTheta
      02000343H   SYMBOL    XDATA    WORD      fre_k
      02000345H   SYMBOL    XDATA    WORD      overFlowValue
      02000347H   SYMBOL    XDATA    BYTE      ha
      02000348H   SYMBOL    XDATA    BYTE      hb
      02000349H   SYMBOL    XDATA    BYTE      hc
      01002853H   LINE      CODE     ---       #112
      01002853H   LINE      CODE     ---       #113
      01002853H   LINE      CODE     ---       #115
      01002855H   LINE      CODE     ---       #116
      01002859H   LINE      CODE     ---       #117
      0100285DH   LINE      CODE     ---       #118
      01002867H   LINE      CODE     ---       #119
      01002871H   LINE      CODE     ---       #120
      0100287CH   LINE      CODE     ---       #122
      0100287FH   LINE      CODE     ---       #124
      0100288DH   LINE      CODE     ---       #125
      0100288EH   LINE      CODE     ---       #126
      ---         BLOCKEND  ---      ---       LVL=0

      0100000EH   BLOCK     CODE     ---       LVL=0
      00000007H   SYMBOL    DATA     BYTE      ha
      00000005H   SYMBOL    DATA     BYTE      hb
      00000003H   SYMBOL    DATA     BYTE      hc
      0100000EH   LINE      CODE     ---       #129
      0100000EH   LINE      CODE     ---       #130
      0100000EH   LINE      CODE     ---       #131
      01000013H   LINE      CODE     ---       #132
      01000016H   LINE      CODE     ---       #133
      0100001AH   LINE      CODE     ---       #134
      ---         BLOCKEND  ---      ---       LVL=0

      01002C25H   BLOCK     CODE     ---       LVL=0
      01002C25H   LINE      CODE     ---       #137
      01002C25H   LINE      CODE     ---       #138
      01002C25H   LINE      CODE     ---       #139
      01002C29H   LINE      CODE     ---       #140
      01002C29H   LINE      CODE     ---       #141
      01002C2CH   LINE      CODE     ---       #142
      01002C2EH   LINE      CODE     ---       #143
      01002C30H   LINE      CODE     ---       #144
      01002C34H   LINE      CODE     ---       #145
      01002C38H   LINE      CODE     ---       #146
      01002C3CH   LINE      CODE     ---       #147
      01002C3CH   LINE      CODE     ---       #148
      ---         BLOCKEND  ---      ---       LVL=0

      01002608H   BLOCK     CODE     ---       LVL=0
      00000001H   SYMBOL    DATA     BYTE      ha
      00000005H   SYMBOL    DATA     BYTE      hb
      00000003H   SYMBOL    DATA     BYTE      hc
      0100260AH   BLOCK     CODE     NEAR LAB  LVL=1
      00000007H   SYMBOL    DATA     BYTE      HallStatus
LX51 LINKER/LOCATER V4.66.87.0                                                        06/22/2026  16:51:37  PAGE 58


      ---         BLOCKEND  ---      ---       LVL=1
      01002608H   LINE      CODE     ---       #151
      0100260AH   LINE      CODE     ---       #152
      0100260AH   LINE      CODE     ---       #153
      0100260CH   LINE      CODE     ---       #155
      01002610H   LINE      CODE     ---       #156
      01002610H   LINE      CODE     ---       #158
      0100261BH   LINE      CODE     ---       #159
      0100261BH   LINE      CODE     ---       #161
      01002631H   LINE      CODE     ---       #162
      01002631H   LINE      CODE     ---       #163
      01002631H   LINE      CODE     ---       #165
      01002636H   LINE      CODE     ---       #166
      01002638H   LINE      CODE     ---       #168
      01002638H   LINE      CODE     ---       #170
      0100263DH   LINE      CODE     ---       #171
      0100263FH   LINE      CODE     ---       #173
      0100263FH   LINE      CODE     ---       #175
      0100264BH   LINE      CODE     ---       #176
      0100264CH   LINE      CODE     ---       #178
      0100264CH   LINE      CODE     ---       #180
      01002651H   LINE      CODE     ---       #181
      01002653H   LINE      CODE     ---       #183
      01002653H   LINE      CODE     ---       #185
      0100265FH   LINE      CODE     ---       #186
      01002660H   LINE      CODE     ---       #188
      01002660H   LINE      CODE     ---       #190
      01002670H   LINE      CODE     ---       #191
      01002670H   LINE      CODE     ---       #192
      01002670H   LINE      CODE     ---       #194
      01002670H   LINE      CODE     ---       #195
      ---         BLOCKEND  ---      ---       LVL=0

      01002A71H   BLOCK     CODE     ---       LVL=0
      02000332H   SYMBOL    XDATA    BYTE      ha
      00000002H   SYMBOL    DATA     BYTE      hb
      00000004H   SYMBOL    DATA     BYTE      hc
      01002A7AH   BLOCK     CODE     NEAR LAB  LVL=1
      02000333H   SYMBOL    XDATA    BYTE      HallFltTime
      00000020H.1 SYMBOL    BIT      BIT       HallUpdateStatus
      ---         BLOCKEND  ---      ---       LVL=1
      01002A71H   LINE      CODE     ---       #198
      01002A7AH   LINE      CODE     ---       #199
      01002A7AH   LINE      CODE     ---       #201
      01002A7EH   LINE      CODE     ---       #203
      01002A80H   LINE      CODE     ---       #206
      01002A85H   LINE      CODE     ---       #212
      01002A96H   LINE      CODE     ---       #213
      01002A96H   LINE      CODE     ---       #215
      01002A98H   LINE      CODE     ---       #216
      01002A9BH   LINE      CODE     ---       #217
      01002A9BH   LINE      CODE     ---       #220
      01002A9DH   LINE      CODE     ---       #221
      ---         BLOCKEND  ---      ---       LVL=0

      01001C02H   BLOCK     CODE     ---       LVL=0
      01001C02H   BLOCK     CODE     NEAR LAB  LVL=1
      00000001H   SYMBOL    DATA     ---       HallNext
      ---         BLOCKEND  ---      ---       LVL=1
      01001C02H   LINE      CODE     ---       #224
      01001C02H   LINE      CODE     ---       #225
      01001C02H   LINE      CODE     ---       #226
      01001C02H   LINE      CODE     ---       #228
      01001C0EH   LINE      CODE     ---       #229
      01001C1AH   LINE      CODE     ---       #230
LX51 LINKER/LOCATER V4.66.87.0                                                        06/22/2026  16:51:37  PAGE 59


      01001C26H   LINE      CODE     ---       #232
      01001C2BH   LINE      CODE     ---       #233
      01001C2BH   LINE      CODE     ---       #235
      01001C31H   LINE      CODE     ---       #236
      01001C37H   LINE      CODE     ---       #237
      01001C3CH   LINE      CODE     ---       #238
      01001C3EH   LINE      CODE     ---       #239
      01001C43H   LINE      CODE     ---       #240
      01001C43H   LINE      CODE     ---       #242
      01001C49H   LINE      CODE     ---       #243
      01001C4FH   LINE      CODE     ---       #244
      01001C54H   LINE      CODE     ---       #245
      01001C56H   LINE      CODE     ---       #246
      01001C5BH   LINE      CODE     ---       #247
      01001C5BH   LINE      CODE     ---       #249
      01001C61H   LINE      CODE     ---       #250
      01001C67H   LINE      CODE     ---       #251
      01001C6CH   LINE      CODE     ---       #252
      01001C6CH   LINE      CODE     ---       #254
      01001C72H   LINE      CODE     ---       #270
      01001C75H   LINE      CODE     ---       #272
      01001C81H   LINE      CODE     ---       #273
      01001C81H   LINE      CODE     ---       #274
      01001C86H   LINE      CODE     ---       #275
      01001C86H   LINE      CODE     ---       #277
      01001C89H   LINE      CODE     ---       #278
      01001C8AH   LINE      CODE     ---       #280
      01001C8AH   LINE      CODE     ---       #282
      01001C8DH   LINE      CODE     ---       #283
      01001C8DH   LINE      CODE     ---       #284
      01001C8EH   LINE      CODE     ---       #285
      01001C9AH   LINE      CODE     ---       #286
      01001C9AH   LINE      CODE     ---       #287
      01001C9FH   LINE      CODE     ---       #288
      01001C9FH   LINE      CODE     ---       #290
      01001CA2H   LINE      CODE     ---       #291
      01001CA3H   LINE      CODE     ---       #293
      01001CA3H   LINE      CODE     ---       #295
      01001CA6H   LINE      CODE     ---       #296
      01001CA6H   LINE      CODE     ---       #297
      01001CA7H   LINE      CODE     ---       #299
      01001CA7H   LINE      CODE     ---       #301
      01001CAAH   LINE      CODE     ---       #302
      01001CAAH   LINE      CODE     ---       #303
      ---         BLOCKEND  ---      ---       LVL=0

      01002C76H   BLOCK     CODE     ---       LVL=0
      01002C76H   LINE      CODE     ---       #306
      01002C76H   LINE      CODE     ---       #307
      01002C76H   LINE      CODE     ---       #317
      01002C7AH   LINE      CODE     ---       #318
      01002C7AH   LINE      CODE     ---       #319
      01002C7AH   LINE      CODE     ---       #320
      01002C7AH   LINE      CODE     ---       #322
      01002C7AH   LINE      CODE     ---       #323
      01002C7FH   LINE      CODE     ---       #324
      01002C7FH   LINE      CODE     ---       #325
      ---         BLOCKEND  ---      ---       LVL=0

      010023CBH   BLOCK     CODE     ---       LVL=0
      010023CBH   LINE      CODE     ---       #328
      010023CBH   LINE      CODE     ---       #329
      010023CBH   LINE      CODE     ---       #330
      010023D0H   LINE      CODE     ---       #331
      010023D0H   LINE      CODE     ---       #334
LX51 LINKER/LOCATER V4.66.87.0                                                        06/22/2026  16:51:37  PAGE 60


      010023DCH   LINE      CODE     ---       #336
      010023E8H   LINE      CODE     ---       #338
      010023ECH   LINE      CODE     ---       #339
      010023ECH   LINE      CODE     ---       #341
      010023F8H   LINE      CODE     ---       #342
      010023F9H   LINE      CODE     ---       #344
      010023F9H   LINE      CODE     ---       #346
      01002405H   LINE      CODE     ---       #347
      01002405H   LINE      CODE     ---       #348
      01002406H   LINE      CODE     ---       #349
      0100240BH   LINE      CODE     ---       #350
      0100240BH   LINE      CODE     ---       #353
      01002417H   LINE      CODE     ---       #355
      01002423H   LINE      CODE     ---       #357
      01002427H   LINE      CODE     ---       #358
      01002427H   LINE      CODE     ---       #360
      01002433H   LINE      CODE     ---       #361
      01002434H   LINE      CODE     ---       #363
      01002434H   LINE      CODE     ---       #365
      01002440H   LINE      CODE     ---       #366
      01002440H   LINE      CODE     ---       #367
      01002440H   LINE      CODE     ---       #368
      ---         BLOCKEND  ---      ---       LVL=0

      010015A5H   BLOCK     CODE     ---       LVL=0
      00000006H   SYMBOL    DATA     WORD      pTime
      00000004H   SYMBOL    DATA     INT       theta
      010015A5H   LINE      CODE     ---       #371
      010015A5H   LINE      CODE     ---       #372
      010015A5H   LINE      CODE     ---       #375
      010015A8H   LINE      CODE     ---       #377
      010015ACH   LINE      CODE     ---       #379
      010015AEH   LINE      CODE     ---       #380
      010015B2H   LINE      CODE     ---       #381
      010015B2H   LINE      CODE     ---       #386
      010015B8H   LINE      CODE     ---       #387
      010015BCH   LINE      CODE     ---       #388
      010015BFH   LINE      CODE     ---       #402
      010015C2H   LINE      CODE     ---       #403
      010015C5H   LINE      CODE     ---       #404
      010015CBH   LINE      CODE     ---       #406
      010015CEH   LINE      CODE     ---       #425
      010015CEH   LINE      CODE     ---       #426
      010015DAH   LINE      CODE     ---       #427
      010015DAH   LINE      CODE     ---       #429
      010015EDH   LINE      CODE     ---       #430
      010015EDH   LINE      CODE     ---       #431
      010015F5H   LINE      CODE     ---       #432
      010015F5H   LINE      CODE     ---       #440
      01001604H   LINE      CODE     ---       #441
      01001604H   LINE      CODE     ---       #442
      01001607H   LINE      CODE     ---       #444
      0100160BH   LINE      CODE     ---       #445
      0100160BH   LINE      CODE     ---       #448
      0100163AH   LINE      CODE     ---       #449
      0100163AH   LINE      CODE     ---       #451
      0100163DH   LINE      CODE     ---       #452
      0100163FH   LINE      CODE     ---       #453
      0100164EH   LINE      CODE     ---       #454
      0100164EH   LINE      CODE     ---       #456
      01001651H   LINE      CODE     ---       #457
      01001651H   LINE      CODE     ---       #458
      01001653H   LINE      CODE     ---       #460
      01001653H   LINE      CODE     ---       #462
      01001658H   LINE      CODE     ---       #464
LX51 LINKER/LOCATER V4.66.87.0                                                        06/22/2026  16:51:37  PAGE 61


      0100165BH   LINE      CODE     ---       #465
      0100165FH   LINE      CODE     ---       #466
      01001663H   LINE      CODE     ---       #467
      01001663H   LINE      CODE     ---       #468
      01001663H   LINE      CODE     ---       #474
      01001666H   LINE      CODE     ---       #476
      0100166AH   LINE      CODE     ---       #477
      0100166AH   LINE      CODE     ---       #484
      0100166DH   LINE      CODE     ---       #491
      01001672H   LINE      CODE     ---       #492
      01001672H   LINE      CODE     ---       #493
      0100167FH   LINE      CODE     ---       #494
      01001681H   LINE      CODE     ---       #495
      01001686H   LINE      CODE     ---       #496
      01001686H   LINE      CODE     ---       #497
      01001693H   LINE      CODE     ---       #498
      01001693H   LINE      CODE     ---       #502
      01001698H   LINE      CODE     ---       #504
      0100169EH   LINE      CODE     ---       #505
      0100169EH   LINE      CODE     ---       #506
      0100169EH   LINE      CODE     ---       #508
      010016A4H   LINE      CODE     ---       #509
      010016AAH   LINE      CODE     ---       #510
      010016B0H   LINE      CODE     ---       #512
      010016B6H   LINE      CODE     ---       #513
      ---         BLOCKEND  ---      ---       LVL=0

      01001D46H   BLOCK     CODE     ---       LVL=0
      00000006H   SYMBOL    DATA     INT       rthe
      01001D46H   LINE      CODE     ---       #516
      01001D46H   LINE      CODE     ---       #517
      01001D46H   LINE      CODE     ---       #518
      01001D4BH   LINE      CODE     ---       #519
      01001D4BH   LINE      CODE     ---       #520
      01001D4FH   LINE      CODE     ---       #521
      01001D51H   LINE      CODE     ---       #522
      01001D56H   LINE      CODE     ---       #523
      01001D56H   LINE      CODE     ---       #525
      01001D5FH   LINE      CODE     ---       #526
      01001D5FH   LINE      CODE     ---       #531
      01001D63H   LINE      CODE     ---       #532
      01001D63H   LINE      CODE     ---       #535
      01001D70H   LINE      CODE     ---       #537
      01001D7BH   LINE      CODE     ---       #538
      01001D7BH   LINE      CODE     ---       #539
      01001D7EH   LINE      CODE     ---       #540
      01001D80H   LINE      CODE     ---       #541
      01001D8BH   LINE      CODE     ---       #542
      01001D8BH   LINE      CODE     ---       #543
      01001DA3H   LINE      CODE     ---       #544
      01001DA5H   LINE      CODE     ---       #545
      01001DB0H   LINE      CODE     ---       #546
      01001DB0H   LINE      CODE     ---       #547
      01001DCEH   LINE      CODE     ---       #548
      01001DCEH   LINE      CODE     ---       #552
      01001DD0H   LINE      CODE     ---       #554
      01001DD0H   LINE      CODE     ---       #555
      01001DD6H   LINE      CODE     ---       #556
      01001DD6H   LINE      CODE     ---       #558
      01001DDCH   LINE      CODE     ---       #559
      01001DDFH   LINE      CODE     ---       #560
      ---         BLOCKEND  ---      ---       LVL=0

      01001251H   BLOCK     CODE     ---       LVL=0
      00000006H   SYMBOL    DATA     WORD      pTime
LX51 LINKER/LOCATER V4.66.87.0                                                        06/22/2026  16:51:37  PAGE 62


      00000004H   SYMBOL    DATA     INT       theta
      01001251H   BLOCK     CODE     NEAR LAB  LVL=1
      0000001CH   SYMBOL    IDATA    INT       ThetaTempError
      0000001EH   SYMBOL    IDATA    INT       CntrTime
      ---         BLOCKEND  ---      ---       LVL=1
      01001251H   LINE      CODE     ---       #568
      01001251H   LINE      CODE     ---       #569
      01001251H   LINE      CODE     ---       #572
      01001258H   LINE      CODE     ---       #573
      0100125CH   LINE      CODE     ---       #574
      0100125FH   LINE      CODE     ---       #576
      01001266H   LINE      CODE     ---       #577
      01001266H   LINE      CODE     ---       #586
      0100126CH   LINE      CODE     ---       #588
      0100127DH   LINE      CODE     ---       #589
      0100127DH   LINE      CODE     ---       #591
      01001296H   LINE      CODE     ---       #592
      0100129FH   LINE      CODE     ---       #593
      0100129FH   LINE      CODE     ---       #595
      010012ABH   LINE      CODE     ---       #596
      010012ADH   LINE      CODE     ---       #597
      010012B6H   LINE      CODE     ---       #598
      010012B6H   LINE      CODE     ---       #600
      010012C2H   LINE      CODE     ---       #601
      010012C2H   LINE      CODE     ---       #602
      010012C4H   LINE      CODE     ---       #604
      010012C4H   LINE      CODE     ---       #605
      010012CAH   LINE      CODE     ---       #606
      010012CAH   LINE      CODE     ---       #607
      010012DBH   LINE      CODE     ---       #610
      010012E5H   LINE      CODE     ---       #611
      010012E5H   LINE      CODE     ---       #612
      010012EDH   LINE      CODE     ---       #613
      010012EFH   LINE      CODE     ---       #614
      010012FDH   LINE      CODE     ---       #615
      010012FDH   LINE      CODE     ---       #616
      01001308H   LINE      CODE     ---       #617
      0100130AH   LINE      CODE     ---       #619
      0100130AH   LINE      CODE     ---       #620
      01001310H   LINE      CODE     ---       #621
      01001310H   LINE      CODE     ---       #624
      01001316H   LINE      CODE     ---       #626
      0100131BH   LINE      CODE     ---       #627
      0100131EH   LINE      CODE     ---       #628
      0100131FH   LINE      CODE     ---       #630
      0100131FH   LINE      CODE     ---       #631
      01001329H   LINE      CODE     ---       #632
      01001330H   LINE      CODE     ---       #635
      0100133EH   LINE      CODE     ---       #637
      0100135FH   LINE      CODE     ---       #639
      0100135FH   LINE      CODE     ---       #640
      01001365H   LINE      CODE     ---       #641
      0100136AH   LINE      CODE     ---       #642
      0100136DH   LINE      CODE     ---       #643
      01001371H   LINE      CODE     ---       #644
      01001371H   LINE      CODE     ---       #645
      01001371H   LINE      CODE     ---       #646
      ---         BLOCKEND  ---      ---       LVL=0

      01002810H   BLOCK     CODE     ---       LVL=0
      01002810H   LINE      CODE     ---       #649
      01002810H   LINE      CODE     ---       #650
      01002810H   LINE      CODE     ---       #651
      01002817H   LINE      CODE     ---       #652
      01002817H   LINE      CODE     ---       #654
LX51 LINKER/LOCATER V4.66.87.0                                                        06/22/2026  16:51:37  PAGE 63


      01002820H   LINE      CODE     ---       #657
      0100282EH   LINE      CODE     ---       #658
      0100282EH   LINE      CODE     ---       #659
      0100282EH   LINE      CODE     ---       #660
      01002833H   LINE      CODE     ---       #661
      01002835H   LINE      CODE     ---       #663
      01002835H   LINE      CODE     ---       #664
      0100283BH   LINE      CODE     ---       #665
      0100283DH   LINE      CODE     ---       #667
      0100283DH   LINE      CODE     ---       #668
      01002843H   LINE      CODE     ---       #669
      01002843H   LINE      CODE     ---       #670
      01002843H   LINE      CODE     ---       #673
      0100284FH   LINE      CODE     ---       #675
      01002851H   LINE      CODE     ---       #676
      01002851H   LINE      CODE     ---       #678
      01002851H   LINE      CODE     ---       #679
      01002852H   LINE      CODE     ---       #680
      01002852H   LINE      CODE     ---       #681
      ---         BLOCKEND  ---      ---       LVL=0

      ---         MODULE    ---      ---       HALLPROCESS
      020003C3H   PUBLIC    XDATA    ---       Hall_Angle_Arr
      0100293FH   PUBLIC    CODE     ---       HallTimerProcess
      0100148EH   PUBLIC    CODE     ---       HallTrigProcess
      000000B8H.3 SFRSYM    DATA     BIT       GP43
      000000B0H.4 SFRSYM    DATA     BIT       GP34
      000000A0H.5 SFRSYM    DATA     BIT       GP25
      00000090H.6 SFRSYM    DATA     BIT       GP16
      00000080H.7 SFRSYM    DATA     BIT       GP07
      00000088H.1 SFRSYM    DATA     BIT       IT01
      00000088H.3 SFRSYM    DATA     BIT       IT10
      000000B8H.4 SFRSYM    DATA     BIT       GP44
      000000B0H.5 SFRSYM    DATA     BIT       GP35
      000000A0H.6 SFRSYM    DATA     BIT       GP26
      00000090H.7 SFRSYM    DATA     BIT       GP17
      00000080H   SFRSYM    DATA     BYTE      P0
      00000088H.4 SFRSYM    DATA     BIT       IT11
      000000C9H   SFRSYM    DATA     BYTE      RST_SR
      000000D9H   SFRSYM    DATA     BYTE      EVT_FILT
      000000B8H.5 SFRSYM    DATA     BIT       GP45
      000000B0H.6 SFRSYM    DATA     BIT       GP36
      000000A0H.7 SFRSYM    DATA     BIT       GP27
      00000090H   SFRSYM    DATA     BYTE      P1
      000000BDH   SFRSYM    DATA     BYTE      LIN_SIZE
      000000B8H.6 SFRSYM    DATA     BIT       GP46
      000000B0H.7 SFRSYM    DATA     BIT       GP37
      000000A0H   SFRSYM    DATA     BYTE      P2
      000000B0H   SFRSYM    DATA     BYTE      P3
      000000B8H   SFRSYM    DATA     BYTE      P4
      000000CEH   SFRSYM    DATA     BYTE      CAN_ALC
      000000D0H.6 SFRSYM    DATA     BIT       AC
      000000A8H.7 SFRSYM    DATA     BIT       EA
      000000D5H   SFRSYM    DATA     BYTE      CMP_CR0
      000000D6H   SFRSYM    DATA     BYTE      CMP_CR1
      000000DAH   SFRSYM    DATA     BYTE      CMP_CR2
      000000DCH   SFRSYM    DATA     BYTE      CMP_CR3
      000000F8H.0 SFRSYM    DATA     BIT       OISUH
      000000E1H   SFRSYM    DATA     BYTE      CMP_CR4
      000000F8H.2 SFRSYM    DATA     BIT       OISVH
      000000F8H.4 SFRSYM    DATA     BIT       OISWH
      000000F8H.1 SFRSYM    DATA     BIT       OISUL
      000000DFH   SFRSYM    DATA     BYTE      CAN_REC
      000000A8H   SFRSYM    DATA     BYTE      IE
      000000F8H.3 SFRSYM    DATA     BIT       OISVL
LX51 LINKER/LOCATER V4.66.87.0                                                        06/22/2026  16:51:37  PAGE 64


      000000F9H   SFRSYM    DATA     BYTE      PI_CR
      000000F8H.5 SFRSYM    DATA     BIT       OISWL
      000000DEH   SFRSYM    DATA     BYTE      CAN_TEC
      000000B4H   SFRSYM    DATA     BYTE      CAN_IER
      000000B6H   SFRSYM    DATA     BYTE      CAN_IFR
      000000AAH   SFRSYM    DATA     WORD      TIM2__CNTR
      000000DDH   SFRSYM    DATA     BYTE      CAN_LIM
      000000A2H   SFRSYM    DATA     WORD      TIM3__CNTR
      000000F1H   SFRSYM    DATA     BYTE      OSC_CFG
      000000E2H   SFRSYM    DATA     BYTE      HALL_CR
      00000092H   SFRSYM    DATA     WORD      TIM4__CNTR
      00000098H.0 SFRSYM    DATA     BIT       RI
      00000098H.6 SFRSYM    DATA     BIT       UT_MOD0
      00000098H.7 SFRSYM    DATA     BIT       UT_MOD1
      000000D0H.7 SFRSYM    DATA     BIT       CY
      00000098H.1 SFRSYM    DATA     BIT       TI
      00000084H   SFRSYM    DATA     BYTE      FLA_KEY
      000000CFH   SFRSYM    DATA     BYTE      CAN_ESR
      00000098H   SFRSYM    DATA     BYTE      UT_CR
      00000099H   SFRSYM    DATA     BYTE      UT_DR
      000000D0H.2 SFRSYM    DATA     BIT       OV
      0000009AH   SFRSYM    DATA     WORD      UT_BAUD
      000000D8H.2 SFRSYM    DATA     BIT       UT2RB8
      000000D8H.3 SFRSYM    DATA     BIT       UT2TB8
      000000BBH   SFRSYM    DATA     BYTE      LIN_CSR
      000000D8H.5 SFRSYM    DATA     BIT       UT2SM2
      00000087H   SFRSYM    DATA     BYTE      PCON
      00000088H   SFRSYM    DATA     BYTE      TCON
      00000082H   SFRSYM    DATA     WORD      DPTR
      00000088H.2 SFRSYM    DATA     BIT       IF0
      000000D8H.4 SFRSYM    DATA     BIT       UT2REN
      000000AEH   SFRSYM    DATA     WORD      TIM2__ARR
      000000A1H   SFRSYM    DATA     BYTE      TIM2_CR0
      000000A6H   SFRSYM    DATA     WORD      TIM3__ARR
      0000009CH   SFRSYM    DATA     BYTE      TIM3_CR0
      000000A9H   SFRSYM    DATA     BYTE      TIM2_CR1
      00000096H   SFRSYM    DATA     WORD      TIM4__ARR
      0000009EH   SFRSYM    DATA     BYTE      TIM4_CR0
      0000009DH   SFRSYM    DATA     BYTE      TIM3_CR1
      000000C4H   SFRSYM    DATA     BYTE      CAN_FIR0
      000000F8H   SFRSYM    DATA     BYTE      DRV_OUT
      0000009FH   SFRSYM    DATA     BYTE      TIM4_CR1
      000000C5H   SFRSYM    DATA     BYTE      CAN_FIR1
      000000C6H   SFRSYM    DATA     BYTE      CAN_FIR2
      000000E0H   SFRSYM    DATA     BYTE      ACC
      000000DBH   SFRSYM    DATA     BYTE      LVSR
      000000C7H   SFRSYM    DATA     BYTE      CAN_FIR3
      000000A8H.4 SFRSYM    DATA     BIT       ES0
      00000085H   SFRSYM    DATA     BYTE      FLA_CR
      000000CAH   SFRSYM    DATA     BYTE      CAN_FMR0
      0000008AH   SFRSYM    DATA     BYTE      IP0
      000000CBH   SFRSYM    DATA     BYTE      CAN_FMR1
      0000008BH   SFRSYM    DATA     BYTE      IP1
      000000CCH   SFRSYM    DATA     BYTE      CAN_FMR2
      0000008CH   SFRSYM    DATA     BYTE      IP2
      000000CDH   SFRSYM    DATA     BYTE      CAN_FMR3
      000000B7H   SFRSYM    DATA     BYTE      CAN_BTR0
      00000098H.2 SFRSYM    DATA     BIT       RB8
      0000008DH   SFRSYM    DATA     BYTE      IP3
      000000C2H   SFRSYM    DATA     BYTE      CAN_BTR1
      000000A8H.0 SFRSYM    DATA     BIT       EX0
      000000C3H   SFRSYM    DATA     BYTE      CAN_BTR2
      00000098H.3 SFRSYM    DATA     BIT       TB8
      000000A8H.2 SFRSYM    DATA     BIT       EX1
      000000D0H.0 SFRSYM    DATA     BIT       P
LX51 LINKER/LOCATER V4.66.87.0                                                        06/22/2026  16:51:37  PAGE 65


      000000BCH   SFRSYM    DATA     BYTE      LIN_ID
      000000D8H   SFRSYM    DATA     BYTE      UT2_CR
      00000089H   SFRSYM    DATA     BYTE      UT2_DR
      00000098H.5 SFRSYM    DATA     BIT       SM2
      000000D0H.3 SFRSYM    DATA     BIT       RS0
      000000D0H.4 SFRSYM    DATA     BIT       RS1
      000000B3H   SFRSYM    DATA     BYTE      CAN_SR
      000000B9H   SFRSYM    DATA     BYTE      LIN_CR
      000000C1H   SFRSYM    DATA     BYTE      MDU_CR
      000000F8H.7 SFRSYM    DATA     BIT       MOE
      000000BEH   SFRSYM    DATA     WORD      LIN_BAUD
      000000A8H.5 SFRSYM    DATA     BIT       MCDIE
      00000088H.6 SFRSYM    DATA     BIT       MCDIF
      00000098H.4 SFRSYM    DATA     BIT       REN
      000000D7H   SFRSYM    DATA     BYTE      CMP_SR
      000000BAH   SFRSYM    DATA     BYTE      LIN_SR
      000000D8H.6 SFRSYM    DATA     BIT       UT2MOD0
      000000D8H.7 SFRSYM    DATA     BIT       UT2MOD1
      000000D1H   SFRSYM    DATA     BYTE      P1_IE
      000000D2H   SFRSYM    DATA     BYTE      P1_IF
      000000D3H   SFRSYM    DATA     BYTE      P4_IE
      000000D4H   SFRSYM    DATA     BYTE      P4_IF
      000000ACH   SFRSYM    DATA     WORD      TIM2__DR
      000000FCH   SFRSYM    DATA     BYTE      P0_OE
      000000A4H   SFRSYM    DATA     WORD      TIM3__DR
      000000FDH   SFRSYM    DATA     BYTE      P1_OE
      00000094H   SFRSYM    DATA     WORD      TIM4__DR
      000000D0H.5 SFRSYM    DATA     BIT       F0
      000000FEH   SFRSYM    DATA     BYTE      P2_OE
      000000D0H.1 SFRSYM    DATA     BIT       F1
      000000FFH   SFRSYM    DATA     BYTE      P3_OE
      00000080H.0 SFRSYM    DATA     BIT       GP00
      000000D8H.0 SFRSYM    DATA     BIT       UT2RI
      000000E9H   SFRSYM    DATA     BYTE      P4_OE
      00000090H.0 SFRSYM    DATA     BIT       GP10
      00000080H.1 SFRSYM    DATA     BIT       GP01
      000000B1H   SFRSYM    DATA     BYTE      CAN_CR0
      000000A8H.6 SFRSYM    DATA     BIT       RTCIE
      000000A0H.0 SFRSYM    DATA     BIT       GP20
      00000090H.1 SFRSYM    DATA     BIT       GP11
      00000080H.2 SFRSYM    DATA     BIT       GP02
      000000B2H   SFRSYM    DATA     BYTE      CAN_CR1
      000000D8H.1 SFRSYM    DATA     BIT       UT2TI
      000000B0H.0 SFRSYM    DATA     BIT       GP30
      000000A0H.1 SFRSYM    DATA     BIT       GP21
      00000090H.2 SFRSYM    DATA     BIT       GP12
      00000080H.3 SFRSYM    DATA     BIT       GP03
      000000B5H   SFRSYM    DATA     BYTE      CAN_CR2
      000000A8H.1 SFRSYM    DATA     BIT       TSDIE
      000000D0H   SFRSYM    DATA     BYTE      PSW
      000000B0H.1 SFRSYM    DATA     BIT       GP31
      000000A0H.2 SFRSYM    DATA     BIT       GP22
      00000090H.3 SFRSYM    DATA     BIT       GP13
      00000080H.4 SFRSYM    DATA     BIT       GP04
      000000A8H.3 SFRSYM    DATA     BIT       SPIIE
      00000088H.5 SFRSYM    DATA     BIT       TSDIF
      000000B8H.1 SFRSYM    DATA     BIT       GP41
      000000B0H.2 SFRSYM    DATA     BIT       GP32
      000000A0H.3 SFRSYM    DATA     BIT       GP23
      00000090H.4 SFRSYM    DATA     BIT       GP14
      00000080H.5 SFRSYM    DATA     BIT       GP05
      000000B8H.2 SFRSYM    DATA     BIT       GP42
      000000B0H.3 SFRSYM    DATA     BIT       GP33
      000000A0H.4 SFRSYM    DATA     BIT       GP24
      00000090H.5 SFRSYM    DATA     BIT       GP15
LX51 LINKER/LOCATER V4.66.87.0                                                        06/22/2026  16:51:37  PAGE 66


      00000080H.6 SFRSYM    DATA     BIT       GP06
      00000088H.0 SFRSYM    DATA     BIT       IT00

      01002A9EH   BLOCK     CODE     ---       LVL=0
      ---         BLOCKEND  ---      ---       LVL=0

      0100148EH   BLOCK     CODE     ---       LVL=0
      010014A5H   BLOCK     CODE     NEAR LAB  LVL=1
      0000000CH   SYMBOL    DATA     WORD      CNTRTemp
      0000000EH   SYMBOL    DATA     INT       Theta
      02000331H   SYMBOL    XDATA    ---       MDUCalData
      020003C2H   SYMBOL    XDATA    BYTE      HallStatus_last
      ---         BLOCKEND  ---      ---       LVL=1
      0100148EH   LINE      CODE     ---       #11
      0100148EH   LINE      CODE     ---       #12
      0100148EH   LINE      CODE     ---       #14
      010014A5H   LINE      CODE     ---       #15
      010014A5H   LINE      CODE     ---       #17
      010014A8H   LINE      CODE     ---       #19
      010014B2H   LINE      CODE     ---       #21
      010014C1H   LINE      CODE     ---       #26
      010014C5H   LINE      CODE     ---       #27
      010014C5H   LINE      CODE     ---       #29
      010014CBH   LINE      CODE     ---       #30
      010014CBH   LINE      CODE     ---       #31
      010014D2H   LINE      CODE     ---       #32
      010014D5H   LINE      CODE     ---       #33
      010014D7H   LINE      CODE     ---       #35
      010014DAH   LINE      CODE     ---       #36
      010014DAH   LINE      CODE     ---       #39
      010014E9H   LINE      CODE     ---       #40
      010014E9H   LINE      CODE     ---       #42
      010014EFH   LINE      CODE     ---       #43
      010014EFH   LINE      CODE     ---       #45
      010014F4H   LINE      CODE     ---       #46
      010014F4H   LINE      CODE     ---       #48
      010014FAH   LINE      CODE     ---       #49
      010014FAH   LINE      CODE     ---       #50
      010014FDH   LINE      CODE     ---       #51
      010014FDH   LINE      CODE     ---       #53
      01001500H   LINE      CODE     ---       #54
      01001500H   LINE      CODE     ---       #56
      01001505H   LINE      CODE     ---       #57
      01001505H   LINE      CODE     ---       #59
      0100150BH   LINE      CODE     ---       #60
      0100150BH   LINE      CODE     ---       #61
      0100150EH   LINE      CODE     ---       #62
      0100150EH   LINE      CODE     ---       #64
      01001511H   LINE      CODE     ---       #65
      01001511H   LINE      CODE     ---       #67
      01001516H   LINE      CODE     ---       #68
      01001516H   LINE      CODE     ---       #70
      01001519H   LINE      CODE     ---       #72
      0100151FH   LINE      CODE     ---       #73
      0100151FH   LINE      CODE     ---       #74
      0100151FH   LINE      CODE     ---       #75
      01001521H   LINE      CODE     ---       #77
      01001521H   LINE      CODE     ---       #78
      01001521H   LINE      CODE     ---       #79
      01001521H   LINE      CODE     ---       #80
      01001523H   LINE      CODE     ---       #81
      01001528H   LINE      CODE     ---       #82
      01001528H   LINE      CODE     ---       #84
      0100152BH   LINE      CODE     ---       #86
      01001531H   LINE      CODE     ---       #87
LX51 LINKER/LOCATER V4.66.87.0                                                        06/22/2026  16:51:37  PAGE 67


      01001531H   LINE      CODE     ---       #88
      01001531H   LINE      CODE     ---       #89
      01001533H   LINE      CODE     ---       #91
      01001533H   LINE      CODE     ---       #92
      01001533H   LINE      CODE     ---       #93
      01001533H   LINE      CODE     ---       #94
      01001535H   LINE      CODE     ---       #95
      0100153AH   LINE      CODE     ---       #96
      0100153AH   LINE      CODE     ---       #98
      0100153EH   LINE      CODE     ---       #100
      01001544H   LINE      CODE     ---       #101
      01001544H   LINE      CODE     ---       #102
      01001548H   LINE      CODE     ---       #103
      0100154AH   LINE      CODE     ---       #105
      0100154AH   LINE      CODE     ---       #106
      01001551H   LINE      CODE     ---       #107
      01001551H   LINE      CODE     ---       #108
      01001551H   LINE      CODE     ---       #110
      01001558H   LINE      CODE     ---       #111
      01001558H   LINE      CODE     ---       #112
      01001562H   LINE      CODE     ---       #113
      01001562H   LINE      CODE     ---       #115
      01001562H   LINE      CODE     ---       #117
      01001562H   LINE      CODE     ---       #119
      0100156AH   LINE      CODE     ---       #120
      0100156AH   LINE      CODE     ---       #121
      0100157FH   LINE      CODE     ---       #122
      01001583H   LINE      CODE     ---       #123
      01001585H   LINE      CODE     ---       #124
      01001588H   LINE      CODE     ---       #125
      01001588H   LINE      CODE     ---       #126
      01001597H   LINE      CODE     ---       #127
      0100159EH   LINE      CODE     ---       #128
      0100159EH   LINE      CODE     ---       #130
      0100159EH   LINE      CODE     ---       #131
      0100159EH   LINE      CODE     ---       #134
      0100159EH   LINE      CODE     ---       #135
      010015A4H   LINE      CODE     ---       #136
      010015A4H   LINE      CODE     ---       #137
      ---         BLOCKEND  ---      ---       LVL=0

      0100293FH   BLOCK     CODE     ---       LVL=0
      0100293FH   BLOCK     CODE     NEAR LAB  LVL=1
      00000008H   SYMBOL    DATA     INT       CNTRTemp
      0000000AH   SYMBOL    DATA     INT       Theta
      ---         BLOCKEND  ---      ---       LVL=1
      0100293FH   LINE      CODE     ---       #140
      0100293FH   LINE      CODE     ---       #141
      0100293FH   LINE      CODE     ---       #143
      01002949H   LINE      CODE     ---       #145
      01002953H   LINE      CODE     ---       #146
      01002962H   LINE      CODE     ---       #148
      01002967H   LINE      CODE     ---       #149
      01002967H   LINE      CODE     ---       #150
      0100296AH   LINE      CODE     ---       #151
      0100296DH   LINE      CODE     ---       #152
      0100296DH   LINE      CODE     ---       #154
      01002972H   LINE      CODE     ---       #155
      01002972H   LINE      CODE     ---       #157
      01002975H   LINE      CODE     ---       #158
      01002978H   LINE      CODE     ---       #159
      01002978H   LINE      CODE     ---       #160
      ---         BLOCKEND  ---      ---       LVL=0

      ---         MODULE    ---      ---       SEATFUN
LX51 LINKER/LOCATER V4.66.87.0                                                        06/22/2026  16:51:37  PAGE 68


      020001F2H   PUBLIC    XDATA    ---       MotorControl
      020001F0H   PUBLIC    XDATA    ---       LegrestRotate
      020001EDH   PUBLIC    XDATA    ---       RearVertical
      020001EBH   PUBLIC    XDATA    ---       Shoulder
      020001E9H   PUBLIC    XDATA    ---       Recline
      020001E0H   PUBLIC    XDATA    ---       SeatCtl
      020001D1H   PUBLIC    XDATA    ---       SeatLinData
      020001C9H   PUBLIC    XDATA    ---       Memorytic_Data
      000000B8H.3 SFRSYM    DATA     BIT       GP43
      000000B0H.4 SFRSYM    DATA     BIT       GP34
      000000A0H.5 SFRSYM    DATA     BIT       GP25
      00000090H.6 SFRSYM    DATA     BIT       GP16
      00000080H.7 SFRSYM    DATA     BIT       GP07
      00000088H.1 SFRSYM    DATA     BIT       IT01
      00000088H.3 SFRSYM    DATA     BIT       IT10
      000000B8H.4 SFRSYM    DATA     BIT       GP44
      000000B0H.5 SFRSYM    DATA     BIT       GP35
      000000A0H.6 SFRSYM    DATA     BIT       GP26
      00000090H.7 SFRSYM    DATA     BIT       GP17
      00000080H   SFRSYM    DATA     BYTE      P0
      00000088H.4 SFRSYM    DATA     BIT       IT11
      000000C9H   SFRSYM    DATA     BYTE      RST_SR
      000000D9H   SFRSYM    DATA     BYTE      EVT_FILT
      000000B8H.5 SFRSYM    DATA     BIT       GP45
      000000B0H.6 SFRSYM    DATA     BIT       GP36
      000000A0H.7 SFRSYM    DATA     BIT       GP27
      00000090H   SFRSYM    DATA     BYTE      P1
      000000BDH   SFRSYM    DATA     BYTE      LIN_SIZE
      000000B8H.6 SFRSYM    DATA     BIT       GP46
      000000B0H.7 SFRSYM    DATA     BIT       GP37
      000000A0H   SFRSYM    DATA     BYTE      P2
      000000B0H   SFRSYM    DATA     BYTE      P3
      000000B8H   SFRSYM    DATA     BYTE      P4
      000000CEH   SFRSYM    DATA     BYTE      CAN_ALC
      000000D0H.6 SFRSYM    DATA     BIT       AC
      000000A8H.7 SFRSYM    DATA     BIT       EA
      000000D5H   SFRSYM    DATA     BYTE      CMP_CR0
      000000D6H   SFRSYM    DATA     BYTE      CMP_CR1
      000000DAH   SFRSYM    DATA     BYTE      CMP_CR2
      000000DCH   SFRSYM    DATA     BYTE      CMP_CR3
      000000F8H.0 SFRSYM    DATA     BIT       OISUH
      000000E1H   SFRSYM    DATA     BYTE      CMP_CR4
      000000F8H.2 SFRSYM    DATA     BIT       OISVH
      000000F8H.4 SFRSYM    DATA     BIT       OISWH
      000000F8H.1 SFRSYM    DATA     BIT       OISUL
      000000DFH   SFRSYM    DATA     BYTE      CAN_REC
      000000A8H   SFRSYM    DATA     BYTE      IE
      000000F8H.3 SFRSYM    DATA     BIT       OISVL
      000000F9H   SFRSYM    DATA     BYTE      PI_CR
      000000F8H.5 SFRSYM    DATA     BIT       OISWL
      000000DEH   SFRSYM    DATA     BYTE      CAN_TEC
      000000B4H   SFRSYM    DATA     BYTE      CAN_IER
      000000B6H   SFRSYM    DATA     BYTE      CAN_IFR
      000000AAH   SFRSYM    DATA     WORD      TIM2__CNTR
      000000DDH   SFRSYM    DATA     BYTE      CAN_LIM
      000000A2H   SFRSYM    DATA     WORD      TIM3__CNTR
      000000F1H   SFRSYM    DATA     BYTE      OSC_CFG
      000000E2H   SFRSYM    DATA     BYTE      HALL_CR
      00000092H   SFRSYM    DATA     WORD      TIM4__CNTR
      00000098H.0 SFRSYM    DATA     BIT       RI
      00000098H.6 SFRSYM    DATA     BIT       UT_MOD0
      00000098H.7 SFRSYM    DATA     BIT       UT_MOD1
      000000D0H.7 SFRSYM    DATA     BIT       CY
      00000098H.1 SFRSYM    DATA     BIT       TI
      00000084H   SFRSYM    DATA     BYTE      FLA_KEY
LX51 LINKER/LOCATER V4.66.87.0                                                        06/22/2026  16:51:37  PAGE 69


      000000CFH   SFRSYM    DATA     BYTE      CAN_ESR
      00000098H   SFRSYM    DATA     BYTE      UT_CR
      00000099H   SFRSYM    DATA     BYTE      UT_DR
      000000D0H.2 SFRSYM    DATA     BIT       OV
      0000009AH   SFRSYM    DATA     WORD      UT_BAUD
      000000D8H.2 SFRSYM    DATA     BIT       UT2RB8
      000000D8H.3 SFRSYM    DATA     BIT       UT2TB8
      000000BBH   SFRSYM    DATA     BYTE      LIN_CSR
      000000D8H.5 SFRSYM    DATA     BIT       UT2SM2
      00000087H   SFRSYM    DATA     BYTE      PCON
      00000088H   SFRSYM    DATA     BYTE      TCON
      00000082H   SFRSYM    DATA     WORD      DPTR
      00000088H.2 SFRSYM    DATA     BIT       IF0
      000000D8H.4 SFRSYM    DATA     BIT       UT2REN
      000000AEH   SFRSYM    DATA     WORD      TIM2__ARR
      000000A1H   SFRSYM    DATA     BYTE      TIM2_CR0
      000000A6H   SFRSYM    DATA     WORD      TIM3__ARR
      0000009CH   SFRSYM    DATA     BYTE      TIM3_CR0
      000000A9H   SFRSYM    DATA     BYTE      TIM2_CR1
      00000096H   SFRSYM    DATA     WORD      TIM4__ARR
      0000009EH   SFRSYM    DATA     BYTE      TIM4_CR0
      0000009DH   SFRSYM    DATA     BYTE      TIM3_CR1
      000000C4H   SFRSYM    DATA     BYTE      CAN_FIR0
      000000F8H   SFRSYM    DATA     BYTE      DRV_OUT
      0000009FH   SFRSYM    DATA     BYTE      TIM4_CR1
      000000C5H   SFRSYM    DATA     BYTE      CAN_FIR1
      000000C6H   SFRSYM    DATA     BYTE      CAN_FIR2
      000000E0H   SFRSYM    DATA     BYTE      ACC
      000000DBH   SFRSYM    DATA     BYTE      LVSR
      000000C7H   SFRSYM    DATA     BYTE      CAN_FIR3
      000000A8H.4 SFRSYM    DATA     BIT       ES0
      00000085H   SFRSYM    DATA     BYTE      FLA_CR
      000000CAH   SFRSYM    DATA     BYTE      CAN_FMR0
      0000008AH   SFRSYM    DATA     BYTE      IP0
      000000CBH   SFRSYM    DATA     BYTE      CAN_FMR1
      0000008BH   SFRSYM    DATA     BYTE      IP1
      000000CCH   SFRSYM    DATA     BYTE      CAN_FMR2
      0000008CH   SFRSYM    DATA     BYTE      IP2
      000000CDH   SFRSYM    DATA     BYTE      CAN_FMR3
      000000B7H   SFRSYM    DATA     BYTE      CAN_BTR0
      00000098H.2 SFRSYM    DATA     BIT       RB8
      0000008DH   SFRSYM    DATA     BYTE      IP3
      000000C2H   SFRSYM    DATA     BYTE      CAN_BTR1
      000000A8H.0 SFRSYM    DATA     BIT       EX0
      000000C3H   SFRSYM    DATA     BYTE      CAN_BTR2
      00000098H.3 SFRSYM    DATA     BIT       TB8
      000000A8H.2 SFRSYM    DATA     BIT       EX1
      000000D0H.0 SFRSYM    DATA     BIT       P
      000000BCH   SFRSYM    DATA     BYTE      LIN_ID
      000000D8H   SFRSYM    DATA     BYTE      UT2_CR
      00000089H   SFRSYM    DATA     BYTE      UT2_DR
      00000098H.5 SFRSYM    DATA     BIT       SM2
      000000D0H.3 SFRSYM    DATA     BIT       RS0
      000000D0H.4 SFRSYM    DATA     BIT       RS1
      000000B3H   SFRSYM    DATA     BYTE      CAN_SR
      000000B9H   SFRSYM    DATA     BYTE      LIN_CR
      000000C1H   SFRSYM    DATA     BYTE      MDU_CR
      000000F8H.7 SFRSYM    DATA     BIT       MOE
      000000BEH   SFRSYM    DATA     WORD      LIN_BAUD
      000000A8H.5 SFRSYM    DATA     BIT       MCDIE
      00000088H.6 SFRSYM    DATA     BIT       MCDIF
      00000098H.4 SFRSYM    DATA     BIT       REN
      000000D7H   SFRSYM    DATA     BYTE      CMP_SR
      000000BAH   SFRSYM    DATA     BYTE      LIN_SR
      000000D8H.6 SFRSYM    DATA     BIT       UT2MOD0
LX51 LINKER/LOCATER V4.66.87.0                                                        06/22/2026  16:51:37  PAGE 70


      000000D8H.7 SFRSYM    DATA     BIT       UT2MOD1
      000000D1H   SFRSYM    DATA     BYTE      P1_IE
      000000D2H   SFRSYM    DATA     BYTE      P1_IF
      000000D3H   SFRSYM    DATA     BYTE      P4_IE
      000000D4H   SFRSYM    DATA     BYTE      P4_IF
      000000ACH   SFRSYM    DATA     WORD      TIM2__DR
      000000FCH   SFRSYM    DATA     BYTE      P0_OE
      000000A4H   SFRSYM    DATA     WORD      TIM3__DR
      000000FDH   SFRSYM    DATA     BYTE      P1_OE
      00000094H   SFRSYM    DATA     WORD      TIM4__DR
      000000D0H.5 SFRSYM    DATA     BIT       F0
      000000FEH   SFRSYM    DATA     BYTE      P2_OE
      000000D0H.1 SFRSYM    DATA     BIT       F1
      000000FFH   SFRSYM    DATA     BYTE      P3_OE
      00000080H.0 SFRSYM    DATA     BIT       GP00
      000000D8H.0 SFRSYM    DATA     BIT       UT2RI
      000000E9H   SFRSYM    DATA     BYTE      P4_OE
      00000090H.0 SFRSYM    DATA     BIT       GP10
      00000080H.1 SFRSYM    DATA     BIT       GP01
      000000B1H   SFRSYM    DATA     BYTE      CAN_CR0
      000000A8H.6 SFRSYM    DATA     BIT       RTCIE
      000000A0H.0 SFRSYM    DATA     BIT       GP20
      00000090H.1 SFRSYM    DATA     BIT       GP11
      00000080H.2 SFRSYM    DATA     BIT       GP02
      000000B2H   SFRSYM    DATA     BYTE      CAN_CR1
      000000D8H.1 SFRSYM    DATA     BIT       UT2TI
      000000B0H.0 SFRSYM    DATA     BIT       GP30
      000000A0H.1 SFRSYM    DATA     BIT       GP21
      00000090H.2 SFRSYM    DATA     BIT       GP12
      00000080H.3 SFRSYM    DATA     BIT       GP03
      000000B5H   SFRSYM    DATA     BYTE      CAN_CR2
      000000A8H.1 SFRSYM    DATA     BIT       TSDIE
      000000D0H   SFRSYM    DATA     BYTE      PSW
      000000B0H.1 SFRSYM    DATA     BIT       GP31
      000000A0H.2 SFRSYM    DATA     BIT       GP22
      00000090H.3 SFRSYM    DATA     BIT       GP13
      00000080H.4 SFRSYM    DATA     BIT       GP04
      000000A8H.3 SFRSYM    DATA     BIT       SPIIE
      00000088H.5 SFRSYM    DATA     BIT       TSDIF
      000000B8H.1 SFRSYM    DATA     BIT       GP41
      000000B0H.2 SFRSYM    DATA     BIT       GP32
      000000A0H.3 SFRSYM    DATA     BIT       GP23
      00000090H.4 SFRSYM    DATA     BIT       GP14
      00000080H.5 SFRSYM    DATA     BIT       GP05
      000000B8H.2 SFRSYM    DATA     BIT       GP42
      000000B0H.3 SFRSYM    DATA     BIT       GP33
      000000A0H.4 SFRSYM    DATA     BIT       GP24
      00000090H.5 SFRSYM    DATA     BIT       GP15
      00000080H.6 SFRSYM    DATA     BIT       GP06
      00000088H.0 SFRSYM    DATA     BIT       IT00

      ---         MODULE    ---      ---       ANTIPINCH
      020000A8H   PUBLIC    XDATA    BYTE      j
      020000A7H   PUBLIC    XDATA    BYTE      i
      020000A6H   PUBLIC    XDATA    BYTE      CntIq
      020000A2H   PUBLIC    XDATA    LONG      Sum_IQ_Compare
      0200009EH   PUBLIC    XDATA    LONG      SumPre_IQ
      0200009AH   PUBLIC    XDATA    LONG      Sum_Time_Compare
      02000096H   PUBLIC    XDATA    LONG      SumPre_Time
      02000095H   PUBLIC    XDATA    BYTE      CntTime
      02000091H   PUBLIC    XDATA    LONG      Sum_IQ
      0200008DH   PUBLIC    XDATA    LONG      Sum_Time
      02000051H   PUBLIC    XDATA    ---       HistoryIQ
      02000050H   PUBLIC    XDATA    BYTE      AntiFlag
      02000000H   PUBLIC    XDATA    ---       HistoryTime
LX51 LINKER/LOCATER V4.66.87.0                                                        06/22/2026  16:51:37  PAGE 71


      000000B8H.3 SFRSYM    DATA     BIT       GP43
      000000B0H.4 SFRSYM    DATA     BIT       GP34
      000000A0H.5 SFRSYM    DATA     BIT       GP25
      00000090H.6 SFRSYM    DATA     BIT       GP16
      00000080H.7 SFRSYM    DATA     BIT       GP07
      00000088H.1 SFRSYM    DATA     BIT       IT01
      00000088H.3 SFRSYM    DATA     BIT       IT10
      000000B8H.4 SFRSYM    DATA     BIT       GP44
      000000B0H.5 SFRSYM    DATA     BIT       GP35
      000000A0H.6 SFRSYM    DATA     BIT       GP26
      00000090H.7 SFRSYM    DATA     BIT       GP17
      00000080H   SFRSYM    DATA     BYTE      P0
      00000088H.4 SFRSYM    DATA     BIT       IT11
      000000C9H   SFRSYM    DATA     BYTE      RST_SR
      000000D9H   SFRSYM    DATA     BYTE      EVT_FILT
      000000B8H.5 SFRSYM    DATA     BIT       GP45
      000000B0H.6 SFRSYM    DATA     BIT       GP36
      000000A0H.7 SFRSYM    DATA     BIT       GP27
      00000090H   SFRSYM    DATA     BYTE      P1
      000000BDH   SFRSYM    DATA     BYTE      LIN_SIZE
      000000B8H.6 SFRSYM    DATA     BIT       GP46
      000000B0H.7 SFRSYM    DATA     BIT       GP37
      000000A0H   SFRSYM    DATA     BYTE      P2
      000000B0H   SFRSYM    DATA     BYTE      P3
      000000B8H   SFRSYM    DATA     BYTE      P4
      000000CEH   SFRSYM    DATA     BYTE      CAN_ALC
      000000D0H.6 SFRSYM    DATA     BIT       AC
      000000A8H.7 SFRSYM    DATA     BIT       EA
      000000D5H   SFRSYM    DATA     BYTE      CMP_CR0
      000000D6H   SFRSYM    DATA     BYTE      CMP_CR1
      000000DAH   SFRSYM    DATA     BYTE      CMP_CR2
      000000DCH   SFRSYM    DATA     BYTE      CMP_CR3
      000000F8H.0 SFRSYM    DATA     BIT       OISUH
      000000E1H   SFRSYM    DATA     BYTE      CMP_CR4
      000000F8H.2 SFRSYM    DATA     BIT       OISVH
      000000F8H.4 SFRSYM    DATA     BIT       OISWH
      000000F8H.1 SFRSYM    DATA     BIT       OISUL
      000000DFH   SFRSYM    DATA     BYTE      CAN_REC
      000000A8H   SFRSYM    DATA     BYTE      IE
      000000F8H.3 SFRSYM    DATA     BIT       OISVL
      000000F9H   SFRSYM    DATA     BYTE      PI_CR
      000000F8H.5 SFRSYM    DATA     BIT       OISWL
      000000DEH   SFRSYM    DATA     BYTE      CAN_TEC
      000000B4H   SFRSYM    DATA     BYTE      CAN_IER
      000000B6H   SFRSYM    DATA     BYTE      CAN_IFR
      000000AAH   SFRSYM    DATA     WORD      TIM2__CNTR
      000000DDH   SFRSYM    DATA     BYTE      CAN_LIM
      000000A2H   SFRSYM    DATA     WORD      TIM3__CNTR
      000000F1H   SFRSYM    DATA     BYTE      OSC_CFG
      000000E2H   SFRSYM    DATA     BYTE      HALL_CR
      00000092H   SFRSYM    DATA     WORD      TIM4__CNTR
      00000098H.0 SFRSYM    DATA     BIT       RI
      00000098H.6 SFRSYM    DATA     BIT       UT_MOD0
      00000098H.7 SFRSYM    DATA     BIT       UT_MOD1
      000000D0H.7 SFRSYM    DATA     BIT       CY
      00000098H.1 SFRSYM    DATA     BIT       TI
      00000084H   SFRSYM    DATA     BYTE      FLA_KEY
      000000CFH   SFRSYM    DATA     BYTE      CAN_ESR
      00000098H   SFRSYM    DATA     BYTE      UT_CR
      00000099H   SFRSYM    DATA     BYTE      UT_DR
      000000D0H.2 SFRSYM    DATA     BIT       OV
      0000009AH   SFRSYM    DATA     WORD      UT_BAUD
      000000D8H.2 SFRSYM    DATA     BIT       UT2RB8
      000000D8H.3 SFRSYM    DATA     BIT       UT2TB8
      000000BBH   SFRSYM    DATA     BYTE      LIN_CSR
LX51 LINKER/LOCATER V4.66.87.0                                                        06/22/2026  16:51:37  PAGE 72


      000000D8H.5 SFRSYM    DATA     BIT       UT2SM2
      00000087H   SFRSYM    DATA     BYTE      PCON
      00000088H   SFRSYM    DATA     BYTE      TCON
      00000082H   SFRSYM    DATA     WORD      DPTR
      00000088H.2 SFRSYM    DATA     BIT       IF0
      000000D8H.4 SFRSYM    DATA     BIT       UT2REN
      000000AEH   SFRSYM    DATA     WORD      TIM2__ARR
      000000A1H   SFRSYM    DATA     BYTE      TIM2_CR0
      000000A6H   SFRSYM    DATA     WORD      TIM3__ARR
      0000009CH   SFRSYM    DATA     BYTE      TIM3_CR0
      000000A9H   SFRSYM    DATA     BYTE      TIM2_CR1
      00000096H   SFRSYM    DATA     WORD      TIM4__ARR
      0000009EH   SFRSYM    DATA     BYTE      TIM4_CR0
      0000009DH   SFRSYM    DATA     BYTE      TIM3_CR1
      000000C4H   SFRSYM    DATA     BYTE      CAN_FIR0
      000000F8H   SFRSYM    DATA     BYTE      DRV_OUT
      0000009FH   SFRSYM    DATA     BYTE      TIM4_CR1
      000000C5H   SFRSYM    DATA     BYTE      CAN_FIR1
      000000C6H   SFRSYM    DATA     BYTE      CAN_FIR2
      000000E0H   SFRSYM    DATA     BYTE      ACC
      000000DBH   SFRSYM    DATA     BYTE      LVSR
      000000C7H   SFRSYM    DATA     BYTE      CAN_FIR3
      000000A8H.4 SFRSYM    DATA     BIT       ES0
      00000085H   SFRSYM    DATA     BYTE      FLA_CR
      000000CAH   SFRSYM    DATA     BYTE      CAN_FMR0
      0000008AH   SFRSYM    DATA     BYTE      IP0
      000000CBH   SFRSYM    DATA     BYTE      CAN_FMR1
      0000008BH   SFRSYM    DATA     BYTE      IP1
      000000CCH   SFRSYM    DATA     BYTE      CAN_FMR2
      0000008CH   SFRSYM    DATA     BYTE      IP2
      000000CDH   SFRSYM    DATA     BYTE      CAN_FMR3
      000000B7H   SFRSYM    DATA     BYTE      CAN_BTR0
      00000098H.2 SFRSYM    DATA     BIT       RB8
      0000008DH   SFRSYM    DATA     BYTE      IP3
      000000C2H   SFRSYM    DATA     BYTE      CAN_BTR1
      000000A8H.0 SFRSYM    DATA     BIT       EX0
      000000C3H   SFRSYM    DATA     BYTE      CAN_BTR2
      00000098H.3 SFRSYM    DATA     BIT       TB8
      000000A8H.2 SFRSYM    DATA     BIT       EX1
      000000D0H.0 SFRSYM    DATA     BIT       P
      000000BCH   SFRSYM    DATA     BYTE      LIN_ID
      000000D8H   SFRSYM    DATA     BYTE      UT2_CR
      00000089H   SFRSYM    DATA     BYTE      UT2_DR
      00000098H.5 SFRSYM    DATA     BIT       SM2
      000000D0H.3 SFRSYM    DATA     BIT       RS0
      000000D0H.4 SFRSYM    DATA     BIT       RS1
      000000B3H   SFRSYM    DATA     BYTE      CAN_SR
      000000B9H   SFRSYM    DATA     BYTE      LIN_CR
      000000C1H   SFRSYM    DATA     BYTE      MDU_CR
      000000F8H.7 SFRSYM    DATA     BIT       MOE
      000000BEH   SFRSYM    DATA     WORD      LIN_BAUD
      000000A8H.5 SFRSYM    DATA     BIT       MCDIE
      00000088H.6 SFRSYM    DATA     BIT       MCDIF
      00000098H.4 SFRSYM    DATA     BIT       REN
      000000D7H   SFRSYM    DATA     BYTE      CMP_SR
      000000BAH   SFRSYM    DATA     BYTE      LIN_SR
      000000D8H.6 SFRSYM    DATA     BIT       UT2MOD0
      000000D8H.7 SFRSYM    DATA     BIT       UT2MOD1
      000000D1H   SFRSYM    DATA     BYTE      P1_IE
      000000D2H   SFRSYM    DATA     BYTE      P1_IF
      000000D3H   SFRSYM    DATA     BYTE      P4_IE
      000000D4H   SFRSYM    DATA     BYTE      P4_IF
      000000ACH   SFRSYM    DATA     WORD      TIM2__DR
      000000FCH   SFRSYM    DATA     BYTE      P0_OE
      000000A4H   SFRSYM    DATA     WORD      TIM3__DR
LX51 LINKER/LOCATER V4.66.87.0                                                        06/22/2026  16:51:37  PAGE 73


      000000FDH   SFRSYM    DATA     BYTE      P1_OE
      00000094H   SFRSYM    DATA     WORD      TIM4__DR
      000000D0H.5 SFRSYM    DATA     BIT       F0
      000000FEH   SFRSYM    DATA     BYTE      P2_OE
      000000D0H.1 SFRSYM    DATA     BIT       F1
      000000FFH   SFRSYM    DATA     BYTE      P3_OE
      00000080H.0 SFRSYM    DATA     BIT       GP00
      000000D8H.0 SFRSYM    DATA     BIT       UT2RI
      000000E9H   SFRSYM    DATA     BYTE      P4_OE
      00000090H.0 SFRSYM    DATA     BIT       GP10
      00000080H.1 SFRSYM    DATA     BIT       GP01
      000000B1H   SFRSYM    DATA     BYTE      CAN_CR0
      000000A8H.6 SFRSYM    DATA     BIT       RTCIE
      000000A0H.0 SFRSYM    DATA     BIT       GP20
      00000090H.1 SFRSYM    DATA     BIT       GP11
      00000080H.2 SFRSYM    DATA     BIT       GP02
      000000B2H   SFRSYM    DATA     BYTE      CAN_CR1
      000000D8H.1 SFRSYM    DATA     BIT       UT2TI
      000000B0H.0 SFRSYM    DATA     BIT       GP30
      000000A0H.1 SFRSYM    DATA     BIT       GP21
      00000090H.2 SFRSYM    DATA     BIT       GP12
      00000080H.3 SFRSYM    DATA     BIT       GP03
      000000B5H   SFRSYM    DATA     BYTE      CAN_CR2
      000000A8H.1 SFRSYM    DATA     BIT       TSDIE
      000000D0H   SFRSYM    DATA     BYTE      PSW
      000000B0H.1 SFRSYM    DATA     BIT       GP31
      000000A0H.2 SFRSYM    DATA     BIT       GP22
      00000090H.3 SFRSYM    DATA     BIT       GP13
      00000080H.4 SFRSYM    DATA     BIT       GP04
      000000A8H.3 SFRSYM    DATA     BIT       SPIIE
      00000088H.5 SFRSYM    DATA     BIT       TSDIF
      000000B8H.1 SFRSYM    DATA     BIT       GP41
      000000B0H.2 SFRSYM    DATA     BIT       GP32
      000000A0H.3 SFRSYM    DATA     BIT       GP23
      00000090H.4 SFRSYM    DATA     BIT       GP14
      00000080H.5 SFRSYM    DATA     BIT       GP05
      000000B8H.2 SFRSYM    DATA     BIT       GP42
      000000B0H.3 SFRSYM    DATA     BIT       GP33
      000000A0H.4 SFRSYM    DATA     BIT       GP24
      00000090H.5 SFRSYM    DATA     BIT       GP15
      00000080H.6 SFRSYM    DATA     BIT       GP06
      00000088H.0 SFRSYM    DATA     BIT       IT00

      ---         MODULE    ---      ---       ADC
      0100288FH   PUBLIC    CODE     ---       ADC_Init
      000000B8H.3 SFRSYM    DATA     BIT       GP43
      000000B0H.4 SFRSYM    DATA     BIT       GP34
      000000A0H.5 SFRSYM    DATA     BIT       GP25
      00000090H.6 SFRSYM    DATA     BIT       GP16
      00000080H.7 SFRSYM    DATA     BIT       GP07
      00000088H.1 SFRSYM    DATA     BIT       IT01
      00000088H.3 SFRSYM    DATA     BIT       IT10
      000000B8H.4 SFRSYM    DATA     BIT       GP44
      000000B0H.5 SFRSYM    DATA     BIT       GP35
      000000A0H.6 SFRSYM    DATA     BIT       GP26
      00000090H.7 SFRSYM    DATA     BIT       GP17
      00000080H   SFRSYM    DATA     BYTE      P0
      00000088H.4 SFRSYM    DATA     BIT       IT11
      000000C9H   SFRSYM    DATA     BYTE      RST_SR
      000000D9H   SFRSYM    DATA     BYTE      EVT_FILT
      000000B8H.5 SFRSYM    DATA     BIT       GP45
      000000B0H.6 SFRSYM    DATA     BIT       GP36
      000000A0H.7 SFRSYM    DATA     BIT       GP27
      00000090H   SFRSYM    DATA     BYTE      P1
      000000BDH   SFRSYM    DATA     BYTE      LIN_SIZE
LX51 LINKER/LOCATER V4.66.87.0                                                        06/22/2026  16:51:37  PAGE 74


      000000B8H.6 SFRSYM    DATA     BIT       GP46
      000000B0H.7 SFRSYM    DATA     BIT       GP37
      000000A0H   SFRSYM    DATA     BYTE      P2
      000000B0H   SFRSYM    DATA     BYTE      P3
      000000B8H   SFRSYM    DATA     BYTE      P4
      000000CEH   SFRSYM    DATA     BYTE      CAN_ALC
      000000D0H.6 SFRSYM    DATA     BIT       AC
      000000A8H.7 SFRSYM    DATA     BIT       EA
      000000D5H   SFRSYM    DATA     BYTE      CMP_CR0
      000000D6H   SFRSYM    DATA     BYTE      CMP_CR1
      000000DAH   SFRSYM    DATA     BYTE      CMP_CR2
      000000DCH   SFRSYM    DATA     BYTE      CMP_CR3
      000000F8H.0 SFRSYM    DATA     BIT       OISUH
      000000E1H   SFRSYM    DATA     BYTE      CMP_CR4
      000000F8H.2 SFRSYM    DATA     BIT       OISVH
      000000F8H.4 SFRSYM    DATA     BIT       OISWH
      000000F8H.1 SFRSYM    DATA     BIT       OISUL
      000000DFH   SFRSYM    DATA     BYTE      CAN_REC
      000000A8H   SFRSYM    DATA     BYTE      IE
      000000F8H.3 SFRSYM    DATA     BIT       OISVL
      000000F9H   SFRSYM    DATA     BYTE      PI_CR
      000000F8H.5 SFRSYM    DATA     BIT       OISWL
      000000DEH   SFRSYM    DATA     BYTE      CAN_TEC
      000000B4H   SFRSYM    DATA     BYTE      CAN_IER
      000000B6H   SFRSYM    DATA     BYTE      CAN_IFR
      000000AAH   SFRSYM    DATA     WORD      TIM2__CNTR
      000000DDH   SFRSYM    DATA     BYTE      CAN_LIM
      000000A2H   SFRSYM    DATA     WORD      TIM3__CNTR
      000000F1H   SFRSYM    DATA     BYTE      OSC_CFG
      000000E2H   SFRSYM    DATA     BYTE      HALL_CR
      00000092H   SFRSYM    DATA     WORD      TIM4__CNTR
      00000098H.0 SFRSYM    DATA     BIT       RI
      00000098H.6 SFRSYM    DATA     BIT       UT_MOD0
      00000098H.7 SFRSYM    DATA     BIT       UT_MOD1
      000000D0H.7 SFRSYM    DATA     BIT       CY
      00000098H.1 SFRSYM    DATA     BIT       TI
      00000084H   SFRSYM    DATA     BYTE      FLA_KEY
      000000CFH   SFRSYM    DATA     BYTE      CAN_ESR
      00000098H   SFRSYM    DATA     BYTE      UT_CR
      00000099H   SFRSYM    DATA     BYTE      UT_DR
      000000D0H.2 SFRSYM    DATA     BIT       OV
      0000009AH   SFRSYM    DATA     WORD      UT_BAUD
      000000D8H.2 SFRSYM    DATA     BIT       UT2RB8
      000000D8H.3 SFRSYM    DATA     BIT       UT2TB8
      000000BBH   SFRSYM    DATA     BYTE      LIN_CSR
      000000D8H.5 SFRSYM    DATA     BIT       UT2SM2
      00000087H   SFRSYM    DATA     BYTE      PCON
      00000088H   SFRSYM    DATA     BYTE      TCON
      00000082H   SFRSYM    DATA     WORD      DPTR
      00000088H.2 SFRSYM    DATA     BIT       IF0
      000000D8H.4 SFRSYM    DATA     BIT       UT2REN
      000000AEH   SFRSYM    DATA     WORD      TIM2__ARR
      000000A1H   SFRSYM    DATA     BYTE      TIM2_CR0
      000000A6H   SFRSYM    DATA     WORD      TIM3__ARR
      0000009CH   SFRSYM    DATA     BYTE      TIM3_CR0
      000000A9H   SFRSYM    DATA     BYTE      TIM2_CR1
      00000096H   SFRSYM    DATA     WORD      TIM4__ARR
      0000009EH   SFRSYM    DATA     BYTE      TIM4_CR0
      0000009DH   SFRSYM    DATA     BYTE      TIM3_CR1
      000000C4H   SFRSYM    DATA     BYTE      CAN_FIR0
      000000F8H   SFRSYM    DATA     BYTE      DRV_OUT
      0000009FH   SFRSYM    DATA     BYTE      TIM4_CR1
      000000C5H   SFRSYM    DATA     BYTE      CAN_FIR1
      000000C6H   SFRSYM    DATA     BYTE      CAN_FIR2
      000000E0H   SFRSYM    DATA     BYTE      ACC
LX51 LINKER/LOCATER V4.66.87.0                                                        06/22/2026  16:51:37  PAGE 75


      000000DBH   SFRSYM    DATA     BYTE      LVSR
      000000C7H   SFRSYM    DATA     BYTE      CAN_FIR3
      000000A8H.4 SFRSYM    DATA     BIT       ES0
      00000085H   SFRSYM    DATA     BYTE      FLA_CR
      000000CAH   SFRSYM    DATA     BYTE      CAN_FMR0
      0000008AH   SFRSYM    DATA     BYTE      IP0
      000000CBH   SFRSYM    DATA     BYTE      CAN_FMR1
      0000008BH   SFRSYM    DATA     BYTE      IP1
      000000CCH   SFRSYM    DATA     BYTE      CAN_FMR2
      0000008CH   SFRSYM    DATA     BYTE      IP2
      000000CDH   SFRSYM    DATA     BYTE      CAN_FMR3
      000000B7H   SFRSYM    DATA     BYTE      CAN_BTR0
      00000098H.2 SFRSYM    DATA     BIT       RB8
      0000008DH   SFRSYM    DATA     BYTE      IP3
      000000C2H   SFRSYM    DATA     BYTE      CAN_BTR1
      000000A8H.0 SFRSYM    DATA     BIT       EX0
      000000C3H   SFRSYM    DATA     BYTE      CAN_BTR2
      00000098H.3 SFRSYM    DATA     BIT       TB8
      000000A8H.2 SFRSYM    DATA     BIT       EX1
      000000D0H.0 SFRSYM    DATA     BIT       P
      000000BCH   SFRSYM    DATA     BYTE      LIN_ID
      000000D8H   SFRSYM    DATA     BYTE      UT2_CR
      00000089H   SFRSYM    DATA     BYTE      UT2_DR
      00000098H.5 SFRSYM    DATA     BIT       SM2
      000000D0H.3 SFRSYM    DATA     BIT       RS0
      000000D0H.4 SFRSYM    DATA     BIT       RS1
      000000B3H   SFRSYM    DATA     BYTE      CAN_SR
      000000B9H   SFRSYM    DATA     BYTE      LIN_CR
      000000C1H   SFRSYM    DATA     BYTE      MDU_CR
      000000F8H.7 SFRSYM    DATA     BIT       MOE
      000000BEH   SFRSYM    DATA     WORD      LIN_BAUD
      000000A8H.5 SFRSYM    DATA     BIT       MCDIE
      00000088H.6 SFRSYM    DATA     BIT       MCDIF
      00000098H.4 SFRSYM    DATA     BIT       REN
      000000D7H   SFRSYM    DATA     BYTE      CMP_SR
      000000BAH   SFRSYM    DATA     BYTE      LIN_SR
      000000D8H.6 SFRSYM    DATA     BIT       UT2MOD0
      000000D8H.7 SFRSYM    DATA     BIT       UT2MOD1
      000000D1H   SFRSYM    DATA     BYTE      P1_IE
      000000D2H   SFRSYM    DATA     BYTE      P1_IF
      000000D3H   SFRSYM    DATA     BYTE      P4_IE
      000000D4H   SFRSYM    DATA     BYTE      P4_IF
      000000ACH   SFRSYM    DATA     WORD      TIM2__DR
      000000FCH   SFRSYM    DATA     BYTE      P0_OE
      000000A4H   SFRSYM    DATA     WORD      TIM3__DR
      000000FDH   SFRSYM    DATA     BYTE      P1_OE
      00000094H   SFRSYM    DATA     WORD      TIM4__DR
      000000D0H.5 SFRSYM    DATA     BIT       F0
      000000FEH   SFRSYM    DATA     BYTE      P2_OE
      000000D0H.1 SFRSYM    DATA     BIT       F1
      000000FFH   SFRSYM    DATA     BYTE      P3_OE
      00000080H.0 SFRSYM    DATA     BIT       GP00
      000000D8H.0 SFRSYM    DATA     BIT       UT2RI
      000000E9H   SFRSYM    DATA     BYTE      P4_OE
      00000090H.0 SFRSYM    DATA     BIT       GP10
      00000080H.1 SFRSYM    DATA     BIT       GP01
      000000B1H   SFRSYM    DATA     BYTE      CAN_CR0
      000000A8H.6 SFRSYM    DATA     BIT       RTCIE
      000000A0H.0 SFRSYM    DATA     BIT       GP20
      00000090H.1 SFRSYM    DATA     BIT       GP11
      00000080H.2 SFRSYM    DATA     BIT       GP02
      000000B2H   SFRSYM    DATA     BYTE      CAN_CR1
      000000D8H.1 SFRSYM    DATA     BIT       UT2TI
      000000B0H.0 SFRSYM    DATA     BIT       GP30
      000000A0H.1 SFRSYM    DATA     BIT       GP21
LX51 LINKER/LOCATER V4.66.87.0                                                        06/22/2026  16:51:37  PAGE 76


      00000090H.2 SFRSYM    DATA     BIT       GP12
      00000080H.3 SFRSYM    DATA     BIT       GP03
      000000B5H   SFRSYM    DATA     BYTE      CAN_CR2
      000000A8H.1 SFRSYM    DATA     BIT       TSDIE
      000000D0H   SFRSYM    DATA     BYTE      PSW
      000000B0H.1 SFRSYM    DATA     BIT       GP31
      000000A0H.2 SFRSYM    DATA     BIT       GP22
      00000090H.3 SFRSYM    DATA     BIT       GP13
      00000080H.4 SFRSYM    DATA     BIT       GP04
      000000A8H.3 SFRSYM    DATA     BIT       SPIIE
      00000088H.5 SFRSYM    DATA     BIT       TSDIF
      000000B8H.1 SFRSYM    DATA     BIT       GP41
      000000B0H.2 SFRSYM    DATA     BIT       GP32
      000000A0H.3 SFRSYM    DATA     BIT       GP23
      00000090H.4 SFRSYM    DATA     BIT       GP14
      00000080H.5 SFRSYM    DATA     BIT       GP05
      000000B8H.2 SFRSYM    DATA     BIT       GP42
      000000B0H.3 SFRSYM    DATA     BIT       GP33
      000000A0H.4 SFRSYM    DATA     BIT       GP24
      00000090H.5 SFRSYM    DATA     BIT       GP15
      00000080H.6 SFRSYM    DATA     BIT       GP06
      00000088H.0 SFRSYM    DATA     BIT       IT00

      0100288FH   BLOCK     CODE     ---       LVL=0
      0100288FH   LINE      CODE     ---       #18
      0100288FH   LINE      CODE     ---       #19
      0100288FH   LINE      CODE     ---       #25
      01002896H   LINE      CODE     ---       #26
      0100289AH   LINE      CODE     ---       #29
      0100289FH   LINE      CODE     ---       #37
      010028B7H   LINE      CODE     ---       #39
      010028B7H   LINE      CODE     ---       #41
      010028BEH   LINE      CODE     ---       #45
      010028BEH   LINE      CODE     ---       #47
      010028C2H   LINE      CODE     ---       #48
      010028C6H   LINE      CODE     ---       #49
      010028CAH   LINE      CODE     ---       #50
      ---         BLOCKEND  ---      ---       LVL=0

      ---         MODULE    ---      ---       AMP
      01002ACBH   PUBLIC    CODE     ---       AMP_Init
      000000B8H.3 SFRSYM    DATA     BIT       GP43
      000000B0H.4 SFRSYM    DATA     BIT       GP34
      000000A0H.5 SFRSYM    DATA     BIT       GP25
      00000090H.6 SFRSYM    DATA     BIT       GP16
      00000080H.7 SFRSYM    DATA     BIT       GP07
      00000088H.1 SFRSYM    DATA     BIT       IT01
      00000088H.3 SFRSYM    DATA     BIT       IT10
      000000B8H.4 SFRSYM    DATA     BIT       GP44
      000000B0H.5 SFRSYM    DATA     BIT       GP35
      000000A0H.6 SFRSYM    DATA     BIT       GP26
      00000090H.7 SFRSYM    DATA     BIT       GP17
      00000080H   SFRSYM    DATA     BYTE      P0
      00000088H.4 SFRSYM    DATA     BIT       IT11
      000000C9H   SFRSYM    DATA     BYTE      RST_SR
      000000D9H   SFRSYM    DATA     BYTE      EVT_FILT
      000000B8H.5 SFRSYM    DATA     BIT       GP45
      000000B0H.6 SFRSYM    DATA     BIT       GP36
      000000A0H.7 SFRSYM    DATA     BIT       GP27
      00000090H   SFRSYM    DATA     BYTE      P1
      000000BDH   SFRSYM    DATA     BYTE      LIN_SIZE
      000000B8H.6 SFRSYM    DATA     BIT       GP46
      000000B0H.7 SFRSYM    DATA     BIT       GP37
      000000A0H   SFRSYM    DATA     BYTE      P2
      000000B0H   SFRSYM    DATA     BYTE      P3
LX51 LINKER/LOCATER V4.66.87.0                                                        06/22/2026  16:51:37  PAGE 77


      000000B8H   SFRSYM    DATA     BYTE      P4
      000000CEH   SFRSYM    DATA     BYTE      CAN_ALC
      000000D0H.6 SFRSYM    DATA     BIT       AC
      000000A8H.7 SFRSYM    DATA     BIT       EA
      000000D5H   SFRSYM    DATA     BYTE      CMP_CR0
      000000D6H   SFRSYM    DATA     BYTE      CMP_CR1
      000000DAH   SFRSYM    DATA     BYTE      CMP_CR2
      000000DCH   SFRSYM    DATA     BYTE      CMP_CR3
      000000F8H.0 SFRSYM    DATA     BIT       OISUH
      000000E1H   SFRSYM    DATA     BYTE      CMP_CR4
      000000F8H.2 SFRSYM    DATA     BIT       OISVH
      000000F8H.4 SFRSYM    DATA     BIT       OISWH
      000000F8H.1 SFRSYM    DATA     BIT       OISUL
      000000DFH   SFRSYM    DATA     BYTE      CAN_REC
      000000A8H   SFRSYM    DATA     BYTE      IE
      000000F8H.3 SFRSYM    DATA     BIT       OISVL
      000000F9H   SFRSYM    DATA     BYTE      PI_CR
      000000F8H.5 SFRSYM    DATA     BIT       OISWL
      000000DEH   SFRSYM    DATA     BYTE      CAN_TEC
      000000B4H   SFRSYM    DATA     BYTE      CAN_IER
      000000B6H   SFRSYM    DATA     BYTE      CAN_IFR
      000000AAH   SFRSYM    DATA     WORD      TIM2__CNTR
      000000DDH   SFRSYM    DATA     BYTE      CAN_LIM
      000000A2H   SFRSYM    DATA     WORD      TIM3__CNTR
      000000F1H   SFRSYM    DATA     BYTE      OSC_CFG
      000000E2H   SFRSYM    DATA     BYTE      HALL_CR
      00000092H   SFRSYM    DATA     WORD      TIM4__CNTR
      00000098H.0 SFRSYM    DATA     BIT       RI
      00000098H.6 SFRSYM    DATA     BIT       UT_MOD0
      00000098H.7 SFRSYM    DATA     BIT       UT_MOD1
      000000D0H.7 SFRSYM    DATA     BIT       CY
      00000098H.1 SFRSYM    DATA     BIT       TI
      00000084H   SFRSYM    DATA     BYTE      FLA_KEY
      000000CFH   SFRSYM    DATA     BYTE      CAN_ESR
      00000098H   SFRSYM    DATA     BYTE      UT_CR
      00000099H   SFRSYM    DATA     BYTE      UT_DR
      000000D0H.2 SFRSYM    DATA     BIT       OV
      0000009AH   SFRSYM    DATA     WORD      UT_BAUD
      000000D8H.2 SFRSYM    DATA     BIT       UT2RB8
      000000D8H.3 SFRSYM    DATA     BIT       UT2TB8
      000000BBH   SFRSYM    DATA     BYTE      LIN_CSR
      000000D8H.5 SFRSYM    DATA     BIT       UT2SM2
      00000087H   SFRSYM    DATA     BYTE      PCON
      00000088H   SFRSYM    DATA     BYTE      TCON
      00000082H   SFRSYM    DATA     WORD      DPTR
      00000088H.2 SFRSYM    DATA     BIT       IF0
      000000D8H.4 SFRSYM    DATA     BIT       UT2REN
      000000AEH   SFRSYM    DATA     WORD      TIM2__ARR
      000000A1H   SFRSYM    DATA     BYTE      TIM2_CR0
      000000A6H   SFRSYM    DATA     WORD      TIM3__ARR
      0000009CH   SFRSYM    DATA     BYTE      TIM3_CR0
      000000A9H   SFRSYM    DATA     BYTE      TIM2_CR1
      00000096H   SFRSYM    DATA     WORD      TIM4__ARR
      0000009EH   SFRSYM    DATA     BYTE      TIM4_CR0
      0000009DH   SFRSYM    DATA     BYTE      TIM3_CR1
      000000C4H   SFRSYM    DATA     BYTE      CAN_FIR0
      000000F8H   SFRSYM    DATA     BYTE      DRV_OUT
      0000009FH   SFRSYM    DATA     BYTE      TIM4_CR1
      000000C5H   SFRSYM    DATA     BYTE      CAN_FIR1
      000000C6H   SFRSYM    DATA     BYTE      CAN_FIR2
      000000E0H   SFRSYM    DATA     BYTE      ACC
      000000DBH   SFRSYM    DATA     BYTE      LVSR
      000000C7H   SFRSYM    DATA     BYTE      CAN_FIR3
      000000A8H.4 SFRSYM    DATA     BIT       ES0
      00000085H   SFRSYM    DATA     BYTE      FLA_CR
LX51 LINKER/LOCATER V4.66.87.0                                                        06/22/2026  16:51:37  PAGE 78


      000000CAH   SFRSYM    DATA     BYTE      CAN_FMR0
      0000008AH   SFRSYM    DATA     BYTE      IP0
      000000CBH   SFRSYM    DATA     BYTE      CAN_FMR1
      0000008BH   SFRSYM    DATA     BYTE      IP1
      000000CCH   SFRSYM    DATA     BYTE      CAN_FMR2
      0000008CH   SFRSYM    DATA     BYTE      IP2
      000000CDH   SFRSYM    DATA     BYTE      CAN_FMR3
      000000B7H   SFRSYM    DATA     BYTE      CAN_BTR0
      00000098H.2 SFRSYM    DATA     BIT       RB8
      0000008DH   SFRSYM    DATA     BYTE      IP3
      000000C2H   SFRSYM    DATA     BYTE      CAN_BTR1
      000000A8H.0 SFRSYM    DATA     BIT       EX0
      000000C3H   SFRSYM    DATA     BYTE      CAN_BTR2
      00000098H.3 SFRSYM    DATA     BIT       TB8
      000000A8H.2 SFRSYM    DATA     BIT       EX1
      000000D0H.0 SFRSYM    DATA     BIT       P
      000000BCH   SFRSYM    DATA     BYTE      LIN_ID
      000000D8H   SFRSYM    DATA     BYTE      UT2_CR
      00000089H   SFRSYM    DATA     BYTE      UT2_DR
      00000098H.5 SFRSYM    DATA     BIT       SM2
      000000D0H.3 SFRSYM    DATA     BIT       RS0
      000000D0H.4 SFRSYM    DATA     BIT       RS1
      000000B3H   SFRSYM    DATA     BYTE      CAN_SR
      000000B9H   SFRSYM    DATA     BYTE      LIN_CR
      000000C1H   SFRSYM    DATA     BYTE      MDU_CR
      000000F8H.7 SFRSYM    DATA     BIT       MOE
      000000BEH   SFRSYM    DATA     WORD      LIN_BAUD
      000000A8H.5 SFRSYM    DATA     BIT       MCDIE
      00000088H.6 SFRSYM    DATA     BIT       MCDIF
      00000098H.4 SFRSYM    DATA     BIT       REN
      000000D7H   SFRSYM    DATA     BYTE      CMP_SR
      000000BAH   SFRSYM    DATA     BYTE      LIN_SR
      000000D8H.6 SFRSYM    DATA     BIT       UT2MOD0
      000000D8H.7 SFRSYM    DATA     BIT       UT2MOD1
      000000D1H   SFRSYM    DATA     BYTE      P1_IE
      000000D2H   SFRSYM    DATA     BYTE      P1_IF
      000000D3H   SFRSYM    DATA     BYTE      P4_IE
      000000D4H   SFRSYM    DATA     BYTE      P4_IF
      000000ACH   SFRSYM    DATA     WORD      TIM2__DR
      000000FCH   SFRSYM    DATA     BYTE      P0_OE
      000000A4H   SFRSYM    DATA     WORD      TIM3__DR
      000000FDH   SFRSYM    DATA     BYTE      P1_OE
      00000094H   SFRSYM    DATA     WORD      TIM4__DR
      000000D0H.5 SFRSYM    DATA     BIT       F0
      000000FEH   SFRSYM    DATA     BYTE      P2_OE
      000000D0H.1 SFRSYM    DATA     BIT       F1
      000000FFH   SFRSYM    DATA     BYTE      P3_OE
      00000080H.0 SFRSYM    DATA     BIT       GP00
      000000D8H.0 SFRSYM    DATA     BIT       UT2RI
      000000E9H   SFRSYM    DATA     BYTE      P4_OE
      00000090H.0 SFRSYM    DATA     BIT       GP10
      00000080H.1 SFRSYM    DATA     BIT       GP01
      000000B1H   SFRSYM    DATA     BYTE      CAN_CR0
      000000A8H.6 SFRSYM    DATA     BIT       RTCIE
      000000A0H.0 SFRSYM    DATA     BIT       GP20
      00000090H.1 SFRSYM    DATA     BIT       GP11
      00000080H.2 SFRSYM    DATA     BIT       GP02
      000000B2H   SFRSYM    DATA     BYTE      CAN_CR1
      000000D8H.1 SFRSYM    DATA     BIT       UT2TI
      000000B0H.0 SFRSYM    DATA     BIT       GP30
      000000A0H.1 SFRSYM    DATA     BIT       GP21
      00000090H.2 SFRSYM    DATA     BIT       GP12
      00000080H.3 SFRSYM    DATA     BIT       GP03
      000000B5H   SFRSYM    DATA     BYTE      CAN_CR2
      000000A8H.1 SFRSYM    DATA     BIT       TSDIE
LX51 LINKER/LOCATER V4.66.87.0                                                        06/22/2026  16:51:37  PAGE 79


      000000D0H   SFRSYM    DATA     BYTE      PSW
      000000B0H.1 SFRSYM    DATA     BIT       GP31
      000000A0H.2 SFRSYM    DATA     BIT       GP22
      00000090H.3 SFRSYM    DATA     BIT       GP13
      00000080H.4 SFRSYM    DATA     BIT       GP04
      000000A8H.3 SFRSYM    DATA     BIT       SPIIE
      00000088H.5 SFRSYM    DATA     BIT       TSDIF
      000000B8H.1 SFRSYM    DATA     BIT       GP41
      000000B0H.2 SFRSYM    DATA     BIT       GP32
      000000A0H.3 SFRSYM    DATA     BIT       GP23
      00000090H.4 SFRSYM    DATA     BIT       GP14
      00000080H.5 SFRSYM    DATA     BIT       GP05
      000000B8H.2 SFRSYM    DATA     BIT       GP42
      000000B0H.3 SFRSYM    DATA     BIT       GP33
      000000A0H.4 SFRSYM    DATA     BIT       GP24
      00000090H.5 SFRSYM    DATA     BIT       GP15
      00000080H.6 SFRSYM    DATA     BIT       GP06
      00000088H.0 SFRSYM    DATA     BIT       IT00

      01002ACBH   BLOCK     CODE     ---       LVL=0
      01002ACBH   LINE      CODE     ---       #20
      01002ACBH   LINE      CODE     ---       #21
      01002ACBH   LINE      CODE     ---       #23
      01002ACBH   LINE      CODE     ---       #37
      01002ACBH   LINE      CODE     ---       #38
      01002AD2H   LINE      CODE     ---       #39
      01002AD6H   LINE      CODE     ---       #40
      01002ADDH   LINE      CODE     ---       #42
      01002AE4H   LINE      CODE     ---       #43
      01002AE8H   LINE      CODE     ---       #64
      01002AE8H   LINE      CODE     ---       #65
      01002AEFH   LINE      CODE     ---       #66
      01002AF3H   LINE      CODE     ---       #67
      01002AF7H   LINE      CODE     ---       #68
      01002AF7H   LINE      CODE     ---       #70
      01002AF7H   LINE      CODE     ---       #72
      01002AF7H   LINE      CODE     ---       #148
      ---         BLOCKEND  ---      ---       LVL=0

      ---         MODULE    ---      ---       CMP
      01002C66H   PUBLIC    CODE     ---       CMP3_Interrupt_Init
      010029AEH   PUBLIC    CODE     ---       CMP3_Init
      000000B8H.3 SFRSYM    DATA     BIT       GP43
      000000B0H.4 SFRSYM    DATA     BIT       GP34
      000000A0H.5 SFRSYM    DATA     BIT       GP25
      00000090H.6 SFRSYM    DATA     BIT       GP16
      00000080H.7 SFRSYM    DATA     BIT       GP07
      00000088H.1 SFRSYM    DATA     BIT       IT01
      00000088H.3 SFRSYM    DATA     BIT       IT10
      000000B8H.4 SFRSYM    DATA     BIT       GP44
      000000B0H.5 SFRSYM    DATA     BIT       GP35
      000000A0H.6 SFRSYM    DATA     BIT       GP26
      00000090H.7 SFRSYM    DATA     BIT       GP17
      00000080H   SFRSYM    DATA     BYTE      P0
      00000088H.4 SFRSYM    DATA     BIT       IT11
      000000C9H   SFRSYM    DATA     BYTE      RST_SR
      000000D9H   SFRSYM    DATA     BYTE      EVT_FILT
      000000B8H.5 SFRSYM    DATA     BIT       GP45
      000000B0H.6 SFRSYM    DATA     BIT       GP36
      000000A0H.7 SFRSYM    DATA     BIT       GP27
      00000090H   SFRSYM    DATA     BYTE      P1
      000000BDH   SFRSYM    DATA     BYTE      LIN_SIZE
      000000B8H.6 SFRSYM    DATA     BIT       GP46
      000000B0H.7 SFRSYM    DATA     BIT       GP37
      000000A0H   SFRSYM    DATA     BYTE      P2
LX51 LINKER/LOCATER V4.66.87.0                                                        06/22/2026  16:51:37  PAGE 80


      000000B0H   SFRSYM    DATA     BYTE      P3
      000000B8H   SFRSYM    DATA     BYTE      P4
      000000CEH   SFRSYM    DATA     BYTE      CAN_ALC
      000000D0H.6 SFRSYM    DATA     BIT       AC
      000000A8H.7 SFRSYM    DATA     BIT       EA
      000000D5H   SFRSYM    DATA     BYTE      CMP_CR0
      000000D6H   SFRSYM    DATA     BYTE      CMP_CR1
      000000DAH   SFRSYM    DATA     BYTE      CMP_CR2
      000000DCH   SFRSYM    DATA     BYTE      CMP_CR3
      000000F8H.0 SFRSYM    DATA     BIT       OISUH
      000000E1H   SFRSYM    DATA     BYTE      CMP_CR4
      000000F8H.2 SFRSYM    DATA     BIT       OISVH
      000000F8H.4 SFRSYM    DATA     BIT       OISWH
      000000F8H.1 SFRSYM    DATA     BIT       OISUL
      000000DFH   SFRSYM    DATA     BYTE      CAN_REC
      000000A8H   SFRSYM    DATA     BYTE      IE
      000000F8H.3 SFRSYM    DATA     BIT       OISVL
      000000F9H   SFRSYM    DATA     BYTE      PI_CR
      000000F8H.5 SFRSYM    DATA     BIT       OISWL
      000000DEH   SFRSYM    DATA     BYTE      CAN_TEC
      000000B4H   SFRSYM    DATA     BYTE      CAN_IER
      000000B6H   SFRSYM    DATA     BYTE      CAN_IFR
      000000AAH   SFRSYM    DATA     WORD      TIM2__CNTR
      000000DDH   SFRSYM    DATA     BYTE      CAN_LIM
      000000A2H   SFRSYM    DATA     WORD      TIM3__CNTR
      000000F1H   SFRSYM    DATA     BYTE      OSC_CFG
      000000E2H   SFRSYM    DATA     BYTE      HALL_CR
      00000092H   SFRSYM    DATA     WORD      TIM4__CNTR
      00000098H.0 SFRSYM    DATA     BIT       RI
      00000098H.6 SFRSYM    DATA     BIT       UT_MOD0
      00000098H.7 SFRSYM    DATA     BIT       UT_MOD1
      000000D0H.7 SFRSYM    DATA     BIT       CY
      00000098H.1 SFRSYM    DATA     BIT       TI
      00000084H   SFRSYM    DATA     BYTE      FLA_KEY
      000000CFH   SFRSYM    DATA     BYTE      CAN_ESR
      00000098H   SFRSYM    DATA     BYTE      UT_CR
      00000099H   SFRSYM    DATA     BYTE      UT_DR
      000000D0H.2 SFRSYM    DATA     BIT       OV
      0000009AH   SFRSYM    DATA     WORD      UT_BAUD
      000000D8H.2 SFRSYM    DATA     BIT       UT2RB8
      000000D8H.3 SFRSYM    DATA     BIT       UT2TB8
      000000BBH   SFRSYM    DATA     BYTE      LIN_CSR
      000000D8H.5 SFRSYM    DATA     BIT       UT2SM2
      00000087H   SFRSYM    DATA     BYTE      PCON
      00000088H   SFRSYM    DATA     BYTE      TCON
      00000082H   SFRSYM    DATA     WORD      DPTR
      00000088H.2 SFRSYM    DATA     BIT       IF0
      000000D8H.4 SFRSYM    DATA     BIT       UT2REN
      000000AEH   SFRSYM    DATA     WORD      TIM2__ARR
      000000A1H   SFRSYM    DATA     BYTE      TIM2_CR0
      000000A6H   SFRSYM    DATA     WORD      TIM3__ARR
      0000009CH   SFRSYM    DATA     BYTE      TIM3_CR0
      000000A9H   SFRSYM    DATA     BYTE      TIM2_CR1
      00000096H   SFRSYM    DATA     WORD      TIM4__ARR
      0000009EH   SFRSYM    DATA     BYTE      TIM4_CR0
      0000009DH   SFRSYM    DATA     BYTE      TIM3_CR1
      000000C4H   SFRSYM    DATA     BYTE      CAN_FIR0
      000000F8H   SFRSYM    DATA     BYTE      DRV_OUT
      0000009FH   SFRSYM    DATA     BYTE      TIM4_CR1
      000000C5H   SFRSYM    DATA     BYTE      CAN_FIR1
      000000C6H   SFRSYM    DATA     BYTE      CAN_FIR2
      000000E0H   SFRSYM    DATA     BYTE      ACC
      000000DBH   SFRSYM    DATA     BYTE      LVSR
      000000C7H   SFRSYM    DATA     BYTE      CAN_FIR3
      000000A8H.4 SFRSYM    DATA     BIT       ES0
LX51 LINKER/LOCATER V4.66.87.0                                                        06/22/2026  16:51:37  PAGE 81


      00000085H   SFRSYM    DATA     BYTE      FLA_CR
      000000CAH   SFRSYM    DATA     BYTE      CAN_FMR0
      0000008AH   SFRSYM    DATA     BYTE      IP0
      000000CBH   SFRSYM    DATA     BYTE      CAN_FMR1
      0000008BH   SFRSYM    DATA     BYTE      IP1
      000000CCH   SFRSYM    DATA     BYTE      CAN_FMR2
      0000008CH   SFRSYM    DATA     BYTE      IP2
      000000CDH   SFRSYM    DATA     BYTE      CAN_FMR3
      000000B7H   SFRSYM    DATA     BYTE      CAN_BTR0
      00000098H.2 SFRSYM    DATA     BIT       RB8
      0000008DH   SFRSYM    DATA     BYTE      IP3
      000000C2H   SFRSYM    DATA     BYTE      CAN_BTR1
      000000A8H.0 SFRSYM    DATA     BIT       EX0
      000000C3H   SFRSYM    DATA     BYTE      CAN_BTR2
      00000098H.3 SFRSYM    DATA     BIT       TB8
      000000A8H.2 SFRSYM    DATA     BIT       EX1
      000000D0H.0 SFRSYM    DATA     BIT       P
      000000BCH   SFRSYM    DATA     BYTE      LIN_ID
      000000D8H   SFRSYM    DATA     BYTE      UT2_CR
      00000089H   SFRSYM    DATA     BYTE      UT2_DR
      00000098H.5 SFRSYM    DATA     BIT       SM2
      000000D0H.3 SFRSYM    DATA     BIT       RS0
      000000D0H.4 SFRSYM    DATA     BIT       RS1
      000000B3H   SFRSYM    DATA     BYTE      CAN_SR
      000000B9H   SFRSYM    DATA     BYTE      LIN_CR
      000000C1H   SFRSYM    DATA     BYTE      MDU_CR
      000000F8H.7 SFRSYM    DATA     BIT       MOE
      000000BEH   SFRSYM    DATA     WORD      LIN_BAUD
      000000A8H.5 SFRSYM    DATA     BIT       MCDIE
      00000088H.6 SFRSYM    DATA     BIT       MCDIF
      00000098H.4 SFRSYM    DATA     BIT       REN
      000000D7H   SFRSYM    DATA     BYTE      CMP_SR
      000000BAH   SFRSYM    DATA     BYTE      LIN_SR
      000000D8H.6 SFRSYM    DATA     BIT       UT2MOD0
      000000D8H.7 SFRSYM    DATA     BIT       UT2MOD1
      000000D1H   SFRSYM    DATA     BYTE      P1_IE
      000000D2H   SFRSYM    DATA     BYTE      P1_IF
      000000D3H   SFRSYM    DATA     BYTE      P4_IE
      000000D4H   SFRSYM    DATA     BYTE      P4_IF
      000000ACH   SFRSYM    DATA     WORD      TIM2__DR
      000000FCH   SFRSYM    DATA     BYTE      P0_OE
      000000A4H   SFRSYM    DATA     WORD      TIM3__DR
      000000FDH   SFRSYM    DATA     BYTE      P1_OE
      00000094H   SFRSYM    DATA     WORD      TIM4__DR
      000000D0H.5 SFRSYM    DATA     BIT       F0
      000000FEH   SFRSYM    DATA     BYTE      P2_OE
      000000D0H.1 SFRSYM    DATA     BIT       F1
      000000FFH   SFRSYM    DATA     BYTE      P3_OE
      00000080H.0 SFRSYM    DATA     BIT       GP00
      000000D8H.0 SFRSYM    DATA     BIT       UT2RI
      000000E9H   SFRSYM    DATA     BYTE      P4_OE
      00000090H.0 SFRSYM    DATA     BIT       GP10
      00000080H.1 SFRSYM    DATA     BIT       GP01
      000000B1H   SFRSYM    DATA     BYTE      CAN_CR0
      000000A8H.6 SFRSYM    DATA     BIT       RTCIE
      000000A0H.0 SFRSYM    DATA     BIT       GP20
      00000090H.1 SFRSYM    DATA     BIT       GP11
      00000080H.2 SFRSYM    DATA     BIT       GP02
      000000B2H   SFRSYM    DATA     BYTE      CAN_CR1
      000000D8H.1 SFRSYM    DATA     BIT       UT2TI
      000000B0H.0 SFRSYM    DATA     BIT       GP30
      000000A0H.1 SFRSYM    DATA     BIT       GP21
      00000090H.2 SFRSYM    DATA     BIT       GP12
      00000080H.3 SFRSYM    DATA     BIT       GP03
      000000B5H   SFRSYM    DATA     BYTE      CAN_CR2
LX51 LINKER/LOCATER V4.66.87.0                                                        06/22/2026  16:51:37  PAGE 82


      000000A8H.1 SFRSYM    DATA     BIT       TSDIE
      000000D0H   SFRSYM    DATA     BYTE      PSW
      000000B0H.1 SFRSYM    DATA     BIT       GP31
      000000A0H.2 SFRSYM    DATA     BIT       GP22
      00000090H.3 SFRSYM    DATA     BIT       GP13
      00000080H.4 SFRSYM    DATA     BIT       GP04
      000000A8H.3 SFRSYM    DATA     BIT       SPIIE
      00000088H.5 SFRSYM    DATA     BIT       TSDIF
      000000B8H.1 SFRSYM    DATA     BIT       GP41
      000000B0H.2 SFRSYM    DATA     BIT       GP32
      000000A0H.3 SFRSYM    DATA     BIT       GP23
      00000090H.4 SFRSYM    DATA     BIT       GP14
      00000080H.5 SFRSYM    DATA     BIT       GP05
      000000B8H.2 SFRSYM    DATA     BIT       GP42
      000000B0H.3 SFRSYM    DATA     BIT       GP33
      000000A0H.4 SFRSYM    DATA     BIT       GP24
      00000090H.5 SFRSYM    DATA     BIT       GP15
      00000080H.6 SFRSYM    DATA     BIT       GP06
      00000088H.0 SFRSYM    DATA     BIT       IT00

      010029AEH   BLOCK     CODE     ---       LVL=0
      010029AEH   LINE      CODE     ---       #32
      010029AEH   LINE      CODE     ---       #33
      010029AEH   LINE      CODE     ---       #37
      010029AEH   LINE      CODE     ---       #38
      010029B5H   LINE      CODE     ---       #39
      010029B8H   LINE      CODE     ---       #40
      010029BBH   LINE      CODE     ---       #41
      010029BBH   LINE      CODE     ---       #64
      010029BBH   LINE      CODE     ---       #69
      010029C2H   LINE      CODE     ---       #74
      010029C6H   LINE      CODE     ---       #78
      010029CCH   LINE      CODE     ---       #79
      010029CCH   LINE      CODE     ---       #82
      010029CFH   LINE      CODE     ---       #87
      010029D2H   LINE      CODE     ---       #95
      010029D5H   LINE      CODE     ---       #96
      010029D8H   LINE      CODE     ---       #106
      010029DBH   LINE      CODE     ---       #107
      010029DEH   LINE      CODE     ---       #109
      010029E1H   LINE      CODE     ---       #110
      ---         BLOCKEND  ---      ---       LVL=0

      01002C66H   BLOCK     CODE     ---       LVL=0
      01002C66H   LINE      CODE     ---       #125
      01002C66H   LINE      CODE     ---       #126
      01002C66H   LINE      CODE     ---       #127
      01002C69H   LINE      CODE     ---       #135
      01002C6CH   LINE      CODE     ---       #136
      01002C6FH   LINE      CODE     ---       #141
      01002C72H   LINE      CODE     ---       #142
      01002C75H   LINE      CODE     ---       #144
      ---         BLOCKEND  ---      ---       LVL=0

      ---         MODULE    ---      ---       CRC
      000000B8H.3 SFRSYM    DATA     BIT       GP43
      000000B0H.4 SFRSYM    DATA     BIT       GP34
      000000A0H.5 SFRSYM    DATA     BIT       GP25
      00000090H.6 SFRSYM    DATA     BIT       GP16
      00000080H.7 SFRSYM    DATA     BIT       GP07
      00000088H.1 SFRSYM    DATA     BIT       IT01
      00000088H.3 SFRSYM    DATA     BIT       IT10
      000000B8H.4 SFRSYM    DATA     BIT       GP44
      000000B0H.5 SFRSYM    DATA     BIT       GP35
      000000A0H.6 SFRSYM    DATA     BIT       GP26
LX51 LINKER/LOCATER V4.66.87.0                                                        06/22/2026  16:51:37  PAGE 83


      00000090H.7 SFRSYM    DATA     BIT       GP17
      00000080H   SFRSYM    DATA     BYTE      P0
      00000088H.4 SFRSYM    DATA     BIT       IT11
      000000C9H   SFRSYM    DATA     BYTE      RST_SR
      000000D9H   SFRSYM    DATA     BYTE      EVT_FILT
      000000B8H.5 SFRSYM    DATA     BIT       GP45
      000000B0H.6 SFRSYM    DATA     BIT       GP36
      000000A0H.7 SFRSYM    DATA     BIT       GP27
      00000090H   SFRSYM    DATA     BYTE      P1
      000000BDH   SFRSYM    DATA     BYTE      LIN_SIZE
      000000B8H.6 SFRSYM    DATA     BIT       GP46
      000000B0H.7 SFRSYM    DATA     BIT       GP37
      000000A0H   SFRSYM    DATA     BYTE      P2
      000000B0H   SFRSYM    DATA     BYTE      P3
      000000B8H   SFRSYM    DATA     BYTE      P4
      000000CEH   SFRSYM    DATA     BYTE      CAN_ALC
      000000D0H.6 SFRSYM    DATA     BIT       AC
      000000A8H.7 SFRSYM    DATA     BIT       EA
      000000D5H   SFRSYM    DATA     BYTE      CMP_CR0
      000000D6H   SFRSYM    DATA     BYTE      CMP_CR1
      000000DAH   SFRSYM    DATA     BYTE      CMP_CR2
      000000DCH   SFRSYM    DATA     BYTE      CMP_CR3
      000000F8H.0 SFRSYM    DATA     BIT       OISUH
      000000E1H   SFRSYM    DATA     BYTE      CMP_CR4
      000000F8H.2 SFRSYM    DATA     BIT       OISVH
      000000F8H.4 SFRSYM    DATA     BIT       OISWH
      000000F8H.1 SFRSYM    DATA     BIT       OISUL
      000000DFH   SFRSYM    DATA     BYTE      CAN_REC
      000000A8H   SFRSYM    DATA     BYTE      IE
      000000F8H.3 SFRSYM    DATA     BIT       OISVL
      000000F9H   SFRSYM    DATA     BYTE      PI_CR
      000000F8H.5 SFRSYM    DATA     BIT       OISWL
      000000DEH   SFRSYM    DATA     BYTE      CAN_TEC
      000000B4H   SFRSYM    DATA     BYTE      CAN_IER
      000000B6H   SFRSYM    DATA     BYTE      CAN_IFR
      000000AAH   SFRSYM    DATA     WORD      TIM2__CNTR
      000000DDH   SFRSYM    DATA     BYTE      CAN_LIM
      000000A2H   SFRSYM    DATA     WORD      TIM3__CNTR
      000000F1H   SFRSYM    DATA     BYTE      OSC_CFG
      000000E2H   SFRSYM    DATA     BYTE      HALL_CR
      00000092H   SFRSYM    DATA     WORD      TIM4__CNTR
      00000098H.0 SFRSYM    DATA     BIT       RI
      00000098H.6 SFRSYM    DATA     BIT       UT_MOD0
      00000098H.7 SFRSYM    DATA     BIT       UT_MOD1
      000000D0H.7 SFRSYM    DATA     BIT       CY
      00000098H.1 SFRSYM    DATA     BIT       TI
      00000084H   SFRSYM    DATA     BYTE      FLA_KEY
      000000CFH   SFRSYM    DATA     BYTE      CAN_ESR
      00000098H   SFRSYM    DATA     BYTE      UT_CR
      00000099H   SFRSYM    DATA     BYTE      UT_DR
      000000D0H.2 SFRSYM    DATA     BIT       OV
      0000009AH   SFRSYM    DATA     WORD      UT_BAUD
      000000D8H.2 SFRSYM    DATA     BIT       UT2RB8
      000000D8H.3 SFRSYM    DATA     BIT       UT2TB8
      000000BBH   SFRSYM    DATA     BYTE      LIN_CSR
      000000D8H.5 SFRSYM    DATA     BIT       UT2SM2
      00000087H   SFRSYM    DATA     BYTE      PCON
      00000088H   SFRSYM    DATA     BYTE      TCON
      00000082H   SFRSYM    DATA     WORD      DPTR
      00000088H.2 SFRSYM    DATA     BIT       IF0
      000000D8H.4 SFRSYM    DATA     BIT       UT2REN
      000000AEH   SFRSYM    DATA     WORD      TIM2__ARR
      000000A1H   SFRSYM    DATA     BYTE      TIM2_CR0
      000000A6H   SFRSYM    DATA     WORD      TIM3__ARR
      0000009CH   SFRSYM    DATA     BYTE      TIM3_CR0
LX51 LINKER/LOCATER V4.66.87.0                                                        06/22/2026  16:51:37  PAGE 84


      000000A9H   SFRSYM    DATA     BYTE      TIM2_CR1
      00000096H   SFRSYM    DATA     WORD      TIM4__ARR
      0000009EH   SFRSYM    DATA     BYTE      TIM4_CR0
      0000009DH   SFRSYM    DATA     BYTE      TIM3_CR1
      000000C4H   SFRSYM    DATA     BYTE      CAN_FIR0
      000000F8H   SFRSYM    DATA     BYTE      DRV_OUT
      0000009FH   SFRSYM    DATA     BYTE      TIM4_CR1
      000000C5H   SFRSYM    DATA     BYTE      CAN_FIR1
      000000C6H   SFRSYM    DATA     BYTE      CAN_FIR2
      000000E0H   SFRSYM    DATA     BYTE      ACC
      000000DBH   SFRSYM    DATA     BYTE      LVSR
      000000C7H   SFRSYM    DATA     BYTE      CAN_FIR3
      000000A8H.4 SFRSYM    DATA     BIT       ES0
      00000085H   SFRSYM    DATA     BYTE      FLA_CR
      000000CAH   SFRSYM    DATA     BYTE      CAN_FMR0
      0000008AH   SFRSYM    DATA     BYTE      IP0
      000000CBH   SFRSYM    DATA     BYTE      CAN_FMR1
      0000008BH   SFRSYM    DATA     BYTE      IP1
      000000CCH   SFRSYM    DATA     BYTE      CAN_FMR2
      0000008CH   SFRSYM    DATA     BYTE      IP2
      000000CDH   SFRSYM    DATA     BYTE      CAN_FMR3
      000000B7H   SFRSYM    DATA     BYTE      CAN_BTR0
      00000098H.2 SFRSYM    DATA     BIT       RB8
      0000008DH   SFRSYM    DATA     BYTE      IP3
      000000C2H   SFRSYM    DATA     BYTE      CAN_BTR1
      000000A8H.0 SFRSYM    DATA     BIT       EX0
      000000C3H   SFRSYM    DATA     BYTE      CAN_BTR2
      00000098H.3 SFRSYM    DATA     BIT       TB8
      000000A8H.2 SFRSYM    DATA     BIT       EX1
      000000D0H.0 SFRSYM    DATA     BIT       P
      000000BCH   SFRSYM    DATA     BYTE      LIN_ID
      000000D8H   SFRSYM    DATA     BYTE      UT2_CR
      00000089H   SFRSYM    DATA     BYTE      UT2_DR
      00000098H.5 SFRSYM    DATA     BIT       SM2
      000000D0H.3 SFRSYM    DATA     BIT       RS0
      000000D0H.4 SFRSYM    DATA     BIT       RS1
      000000B3H   SFRSYM    DATA     BYTE      CAN_SR
      000000B9H   SFRSYM    DATA     BYTE      LIN_CR
      000000C1H   SFRSYM    DATA     BYTE      MDU_CR
      000000F8H.7 SFRSYM    DATA     BIT       MOE
      000000BEH   SFRSYM    DATA     WORD      LIN_BAUD
      000000A8H.5 SFRSYM    DATA     BIT       MCDIE
      00000088H.6 SFRSYM    DATA     BIT       MCDIF
      00000098H.4 SFRSYM    DATA     BIT       REN
      000000D7H   SFRSYM    DATA     BYTE      CMP_SR
      000000BAH   SFRSYM    DATA     BYTE      LIN_SR
      000000D8H.6 SFRSYM    DATA     BIT       UT2MOD0
      000000D8H.7 SFRSYM    DATA     BIT       UT2MOD1
      000000D1H   SFRSYM    DATA     BYTE      P1_IE
      000000D2H   SFRSYM    DATA     BYTE      P1_IF
      000000D3H   SFRSYM    DATA     BYTE      P4_IE
      000000D4H   SFRSYM    DATA     BYTE      P4_IF
      000000ACH   SFRSYM    DATA     WORD      TIM2__DR
      000000FCH   SFRSYM    DATA     BYTE      P0_OE
      000000A4H   SFRSYM    DATA     WORD      TIM3__DR
      000000FDH   SFRSYM    DATA     BYTE      P1_OE
      00000094H   SFRSYM    DATA     WORD      TIM4__DR
      000000D0H.5 SFRSYM    DATA     BIT       F0
      000000FEH   SFRSYM    DATA     BYTE      P2_OE
      000000D0H.1 SFRSYM    DATA     BIT       F1
      000000FFH   SFRSYM    DATA     BYTE      P3_OE
      00000080H.0 SFRSYM    DATA     BIT       GP00
      000000D8H.0 SFRSYM    DATA     BIT       UT2RI
      000000E9H   SFRSYM    DATA     BYTE      P4_OE
      00000090H.0 SFRSYM    DATA     BIT       GP10
LX51 LINKER/LOCATER V4.66.87.0                                                        06/22/2026  16:51:37  PAGE 85


      00000080H.1 SFRSYM    DATA     BIT       GP01
      000000B1H   SFRSYM    DATA     BYTE      CAN_CR0
      000000A8H.6 SFRSYM    DATA     BIT       RTCIE
      000000A0H.0 SFRSYM    DATA     BIT       GP20
      00000090H.1 SFRSYM    DATA     BIT       GP11
      00000080H.2 SFRSYM    DATA     BIT       GP02
      000000B2H   SFRSYM    DATA     BYTE      CAN_CR1
      000000D8H.1 SFRSYM    DATA     BIT       UT2TI
      000000B0H.0 SFRSYM    DATA     BIT       GP30
      000000A0H.1 SFRSYM    DATA     BIT       GP21
      00000090H.2 SFRSYM    DATA     BIT       GP12
      00000080H.3 SFRSYM    DATA     BIT       GP03
      000000B5H   SFRSYM    DATA     BYTE      CAN_CR2
      000000A8H.1 SFRSYM    DATA     BIT       TSDIE
      000000D0H   SFRSYM    DATA     BYTE      PSW
      000000B0H.1 SFRSYM    DATA     BIT       GP31
      000000A0H.2 SFRSYM    DATA     BIT       GP22
      00000090H.3 SFRSYM    DATA     BIT       GP13
      00000080H.4 SFRSYM    DATA     BIT       GP04
      000000A8H.3 SFRSYM    DATA     BIT       SPIIE
      00000088H.5 SFRSYM    DATA     BIT       TSDIF
      000000B8H.1 SFRSYM    DATA     BIT       GP41
      000000B0H.2 SFRSYM    DATA     BIT       GP32
      000000A0H.3 SFRSYM    DATA     BIT       GP23
      00000090H.4 SFRSYM    DATA     BIT       GP14
      00000080H.5 SFRSYM    DATA     BIT       GP05
      000000B8H.2 SFRSYM    DATA     BIT       GP42
      000000B0H.3 SFRSYM    DATA     BIT       GP33
      000000A0H.4 SFRSYM    DATA     BIT       GP24
      00000090H.5 SFRSYM    DATA     BIT       GP15
      00000080H.6 SFRSYM    DATA     BIT       GP06
      00000088H.0 SFRSYM    DATA     BIT       IT00
      00000001H   SYMBOL    DATA     BYTE      offset_sector
      00000006H   SYMBOL    DATA     WORD      crcresult
      00000006H   SYMBOL    DATA     WORD      tempH
      00000004H   SYMBOL    DATA     WORD      tempL

      ---         MODULE    ---      ---       DMA
      000000B8H.3 SFRSYM    DATA     BIT       GP43
      000000B0H.4 SFRSYM    DATA     BIT       GP34
      000000A0H.5 SFRSYM    DATA     BIT       GP25
      00000090H.6 SFRSYM    DATA     BIT       GP16
      00000080H.7 SFRSYM    DATA     BIT       GP07
      00000088H.1 SFRSYM    DATA     BIT       IT01
      00000088H.3 SFRSYM    DATA     BIT       IT10
      000000B8H.4 SFRSYM    DATA     BIT       GP44
      000000B0H.5 SFRSYM    DATA     BIT       GP35
      000000A0H.6 SFRSYM    DATA     BIT       GP26
      00000090H.7 SFRSYM    DATA     BIT       GP17
      00000080H   SFRSYM    DATA     BYTE      P0
      00000088H.4 SFRSYM    DATA     BIT       IT11
      000000C9H   SFRSYM    DATA     BYTE      RST_SR
      000000D9H   SFRSYM    DATA     BYTE      EVT_FILT
      000000B8H.5 SFRSYM    DATA     BIT       GP45
      000000B0H.6 SFRSYM    DATA     BIT       GP36
      000000A0H.7 SFRSYM    DATA     BIT       GP27
      00000090H   SFRSYM    DATA     BYTE      P1
      000000BDH   SFRSYM    DATA     BYTE      LIN_SIZE
      000000B8H.6 SFRSYM    DATA     BIT       GP46
      000000B0H.7 SFRSYM    DATA     BIT       GP37
      000000A0H   SFRSYM    DATA     BYTE      P2
      000000B0H   SFRSYM    DATA     BYTE      P3
      000000B8H   SFRSYM    DATA     BYTE      P4
      000000CEH   SFRSYM    DATA     BYTE      CAN_ALC
      000000D0H.6 SFRSYM    DATA     BIT       AC
LX51 LINKER/LOCATER V4.66.87.0                                                        06/22/2026  16:51:37  PAGE 86


      000000A8H.7 SFRSYM    DATA     BIT       EA
      000000D5H   SFRSYM    DATA     BYTE      CMP_CR0
      000000D6H   SFRSYM    DATA     BYTE      CMP_CR1
      000000DAH   SFRSYM    DATA     BYTE      CMP_CR2
      000000DCH   SFRSYM    DATA     BYTE      CMP_CR3
      000000F8H.0 SFRSYM    DATA     BIT       OISUH
      000000E1H   SFRSYM    DATA     BYTE      CMP_CR4
      000000F8H.2 SFRSYM    DATA     BIT       OISVH
      000000F8H.4 SFRSYM    DATA     BIT       OISWH
      000000F8H.1 SFRSYM    DATA     BIT       OISUL
      000000DFH   SFRSYM    DATA     BYTE      CAN_REC
      000000A8H   SFRSYM    DATA     BYTE      IE
      000000F8H.3 SFRSYM    DATA     BIT       OISVL
      000000F9H   SFRSYM    DATA     BYTE      PI_CR
      000000F8H.5 SFRSYM    DATA     BIT       OISWL
      000000DEH   SFRSYM    DATA     BYTE      CAN_TEC
      000000B4H   SFRSYM    DATA     BYTE      CAN_IER
      000000B6H   SFRSYM    DATA     BYTE      CAN_IFR
      000000AAH   SFRSYM    DATA     WORD      TIM2__CNTR
      000000DDH   SFRSYM    DATA     BYTE      CAN_LIM
      000000A2H   SFRSYM    DATA     WORD      TIM3__CNTR
      000000F1H   SFRSYM    DATA     BYTE      OSC_CFG
      000000E2H   SFRSYM    DATA     BYTE      HALL_CR
      00000092H   SFRSYM    DATA     WORD      TIM4__CNTR
      00000098H.0 SFRSYM    DATA     BIT       RI
      00000098H.6 SFRSYM    DATA     BIT       UT_MOD0
      00000098H.7 SFRSYM    DATA     BIT       UT_MOD1
      000000D0H.7 SFRSYM    DATA     BIT       CY
      00000098H.1 SFRSYM    DATA     BIT       TI
      00000084H   SFRSYM    DATA     BYTE      FLA_KEY
      000000CFH   SFRSYM    DATA     BYTE      CAN_ESR
      00000098H   SFRSYM    DATA     BYTE      UT_CR
      00000099H   SFRSYM    DATA     BYTE      UT_DR
      000000D0H.2 SFRSYM    DATA     BIT       OV
      0000009AH   SFRSYM    DATA     WORD      UT_BAUD
      000000D8H.2 SFRSYM    DATA     BIT       UT2RB8
      000000D8H.3 SFRSYM    DATA     BIT       UT2TB8
      000000BBH   SFRSYM    DATA     BYTE      LIN_CSR
      000000D8H.5 SFRSYM    DATA     BIT       UT2SM2
      00000087H   SFRSYM    DATA     BYTE      PCON
      00000088H   SFRSYM    DATA     BYTE      TCON
      00000082H   SFRSYM    DATA     WORD      DPTR
      00000088H.2 SFRSYM    DATA     BIT       IF0
      000000D8H.4 SFRSYM    DATA     BIT       UT2REN
      000000AEH   SFRSYM    DATA     WORD      TIM2__ARR
      000000A1H   SFRSYM    DATA     BYTE      TIM2_CR0
      000000A6H   SFRSYM    DATA     WORD      TIM3__ARR
      0000009CH   SFRSYM    DATA     BYTE      TIM3_CR0
      000000A9H   SFRSYM    DATA     BYTE      TIM2_CR1
      00000096H   SFRSYM    DATA     WORD      TIM4__ARR
      0000009EH   SFRSYM    DATA     BYTE      TIM4_CR0
      0000009DH   SFRSYM    DATA     BYTE      TIM3_CR1
      000000C4H   SFRSYM    DATA     BYTE      CAN_FIR0
      000000F8H   SFRSYM    DATA     BYTE      DRV_OUT
      0000009FH   SFRSYM    DATA     BYTE      TIM4_CR1
      000000C5H   SFRSYM    DATA     BYTE      CAN_FIR1
      000000C6H   SFRSYM    DATA     BYTE      CAN_FIR2
      000000E0H   SFRSYM    DATA     BYTE      ACC
      000000DBH   SFRSYM    DATA     BYTE      LVSR
      000000C7H   SFRSYM    DATA     BYTE      CAN_FIR3
      000000A8H.4 SFRSYM    DATA     BIT       ES0
      00000085H   SFRSYM    DATA     BYTE      FLA_CR
      000000CAH   SFRSYM    DATA     BYTE      CAN_FMR0
      0000008AH   SFRSYM    DATA     BYTE      IP0
      000000CBH   SFRSYM    DATA     BYTE      CAN_FMR1
LX51 LINKER/LOCATER V4.66.87.0                                                        06/22/2026  16:51:37  PAGE 87


      0000008BH   SFRSYM    DATA     BYTE      IP1
      000000CCH   SFRSYM    DATA     BYTE      CAN_FMR2
      0000008CH   SFRSYM    DATA     BYTE      IP2
      000000CDH   SFRSYM    DATA     BYTE      CAN_FMR3
      000000B7H   SFRSYM    DATA     BYTE      CAN_BTR0
      00000098H.2 SFRSYM    DATA     BIT       RB8
      0000008DH   SFRSYM    DATA     BYTE      IP3
      000000C2H   SFRSYM    DATA     BYTE      CAN_BTR1
      000000A8H.0 SFRSYM    DATA     BIT       EX0
      000000C3H   SFRSYM    DATA     BYTE      CAN_BTR2
      00000098H.3 SFRSYM    DATA     BIT       TB8
      000000A8H.2 SFRSYM    DATA     BIT       EX1
      000000D0H.0 SFRSYM    DATA     BIT       P
      000000BCH   SFRSYM    DATA     BYTE      LIN_ID
      000000D8H   SFRSYM    DATA     BYTE      UT2_CR
      00000089H   SFRSYM    DATA     BYTE      UT2_DR
      00000098H.5 SFRSYM    DATA     BIT       SM2
      000000D0H.3 SFRSYM    DATA     BIT       RS0
      000000D0H.4 SFRSYM    DATA     BIT       RS1
      000000B3H   SFRSYM    DATA     BYTE      CAN_SR
      000000B9H   SFRSYM    DATA     BYTE      LIN_CR
      000000C1H   SFRSYM    DATA     BYTE      MDU_CR
      000000F8H.7 SFRSYM    DATA     BIT       MOE
      000000BEH   SFRSYM    DATA     WORD      LIN_BAUD
      000000A8H.5 SFRSYM    DATA     BIT       MCDIE
      00000088H.6 SFRSYM    DATA     BIT       MCDIF
      00000098H.4 SFRSYM    DATA     BIT       REN
      000000D7H   SFRSYM    DATA     BYTE      CMP_SR
      000000BAH   SFRSYM    DATA     BYTE      LIN_SR
      000000D8H.6 SFRSYM    DATA     BIT       UT2MOD0
      000000D8H.7 SFRSYM    DATA     BIT       UT2MOD1
      000000D1H   SFRSYM    DATA     BYTE      P1_IE
      000000D2H   SFRSYM    DATA     BYTE      P1_IF
      000000D3H   SFRSYM    DATA     BYTE      P4_IE
      000000D4H   SFRSYM    DATA     BYTE      P4_IF
      000000ACH   SFRSYM    DATA     WORD      TIM2__DR
      000000FCH   SFRSYM    DATA     BYTE      P0_OE
      000000A4H   SFRSYM    DATA     WORD      TIM3__DR
      000000FDH   SFRSYM    DATA     BYTE      P1_OE
      00000094H   SFRSYM    DATA     WORD      TIM4__DR
      000000D0H.5 SFRSYM    DATA     BIT       F0
      000000FEH   SFRSYM    DATA     BYTE      P2_OE
      000000D0H.1 SFRSYM    DATA     BIT       F1
      000000FFH   SFRSYM    DATA     BYTE      P3_OE
      00000080H.0 SFRSYM    DATA     BIT       GP00
      000000D8H.0 SFRSYM    DATA     BIT       UT2RI
      000000E9H   SFRSYM    DATA     BYTE      P4_OE
      00000090H.0 SFRSYM    DATA     BIT       GP10
      00000080H.1 SFRSYM    DATA     BIT       GP01
      000000B1H   SFRSYM    DATA     BYTE      CAN_CR0
      000000A8H.6 SFRSYM    DATA     BIT       RTCIE
      000000A0H.0 SFRSYM    DATA     BIT       GP20
      00000090H.1 SFRSYM    DATA     BIT       GP11
      00000080H.2 SFRSYM    DATA     BIT       GP02
      000000B2H   SFRSYM    DATA     BYTE      CAN_CR1
      000000D8H.1 SFRSYM    DATA     BIT       UT2TI
      000000B0H.0 SFRSYM    DATA     BIT       GP30
      000000A0H.1 SFRSYM    DATA     BIT       GP21
      00000090H.2 SFRSYM    DATA     BIT       GP12
      00000080H.3 SFRSYM    DATA     BIT       GP03
      000000B5H   SFRSYM    DATA     BYTE      CAN_CR2
      000000A8H.1 SFRSYM    DATA     BIT       TSDIE
      000000D0H   SFRSYM    DATA     BYTE      PSW
      000000B0H.1 SFRSYM    DATA     BIT       GP31
      000000A0H.2 SFRSYM    DATA     BIT       GP22
LX51 LINKER/LOCATER V4.66.87.0                                                        06/22/2026  16:51:37  PAGE 88


      00000090H.3 SFRSYM    DATA     BIT       GP13
      00000080H.4 SFRSYM    DATA     BIT       GP04
      000000A8H.3 SFRSYM    DATA     BIT       SPIIE
      00000088H.5 SFRSYM    DATA     BIT       TSDIF
      000000B8H.1 SFRSYM    DATA     BIT       GP41
      000000B0H.2 SFRSYM    DATA     BIT       GP32
      000000A0H.3 SFRSYM    DATA     BIT       GP23
      00000090H.4 SFRSYM    DATA     BIT       GP14
      00000080H.5 SFRSYM    DATA     BIT       GP05
      000000B8H.2 SFRSYM    DATA     BIT       GP42
      000000B0H.3 SFRSYM    DATA     BIT       GP33
      000000A0H.4 SFRSYM    DATA     BIT       GP24
      00000090H.5 SFRSYM    DATA     BIT       GP15
      00000080H.6 SFRSYM    DATA     BIT       GP06
      00000088H.0 SFRSYM    DATA     BIT       IT00
      00000007H   SYMBOL    DATA     BYTE      ePipe
      00000007H   SYMBOL    DATA     BYTE      ePipe
      00000006H   SYMBOL    DATA     WORD      ulAddr
      00000005H   SYMBOL    DATA     CHAR      cLen
      00000006H   SYMBOL    DATA     WORD      ulAddr
      00000005H   SYMBOL    DATA     CHAR      cLen
      00000007H   SYMBOL    DATA     BYTE      eEndian
      00000007H   SYMBOL    DATA     BYTE      eIRQ
      00000005H   SYMBOL    DATA     BYTE      eIP
      00000006H   SYMBOL    DATA     ---       DMAAddr
      00000006H   SYMBOL    DATA     WORD      ulAddr
      00000007H   SYMBOL    DATA     BYTE      eStatu
      00000007H   SYMBOL    DATA     BYTE      eStatu

      ---         MODULE    ---      ---       DRIVER
      010024B6H   PUBLIC    CODE     ---       Driver_Init
      000000B8H.3 SFRSYM    DATA     BIT       GP43
      000000B0H.4 SFRSYM    DATA     BIT       GP34
      000000A0H.5 SFRSYM    DATA     BIT       GP25
      00000090H.6 SFRSYM    DATA     BIT       GP16
      00000080H.7 SFRSYM    DATA     BIT       GP07
      00000088H.1 SFRSYM    DATA     BIT       IT01
      00000088H.3 SFRSYM    DATA     BIT       IT10
      000000B8H.4 SFRSYM    DATA     BIT       GP44
      000000B0H.5 SFRSYM    DATA     BIT       GP35
      000000A0H.6 SFRSYM    DATA     BIT       GP26
      00000090H.7 SFRSYM    DATA     BIT       GP17
      00000080H   SFRSYM    DATA     BYTE      P0
      00000088H.4 SFRSYM    DATA     BIT       IT11
      000000C9H   SFRSYM    DATA     BYTE      RST_SR
      000000D9H   SFRSYM    DATA     BYTE      EVT_FILT
      000000B8H.5 SFRSYM    DATA     BIT       GP45
      000000B0H.6 SFRSYM    DATA     BIT       GP36
      000000A0H.7 SFRSYM    DATA     BIT       GP27
      00000090H   SFRSYM    DATA     BYTE      P1
      000000BDH   SFRSYM    DATA     BYTE      LIN_SIZE
      000000B8H.6 SFRSYM    DATA     BIT       GP46
      000000B0H.7 SFRSYM    DATA     BIT       GP37
      000000A0H   SFRSYM    DATA     BYTE      P2
      000000B0H   SFRSYM    DATA     BYTE      P3
      000000B8H   SFRSYM    DATA     BYTE      P4
      000000CEH   SFRSYM    DATA     BYTE      CAN_ALC
      000000D0H.6 SFRSYM    DATA     BIT       AC
      000000A8H.7 SFRSYM    DATA     BIT       EA
      000000D5H   SFRSYM    DATA     BYTE      CMP_CR0
      000000D6H   SFRSYM    DATA     BYTE      CMP_CR1
      000000DAH   SFRSYM    DATA     BYTE      CMP_CR2
      000000DCH   SFRSYM    DATA     BYTE      CMP_CR3
      000000F8H.0 SFRSYM    DATA     BIT       OISUH
      000000E1H   SFRSYM    DATA     BYTE      CMP_CR4
LX51 LINKER/LOCATER V4.66.87.0                                                        06/22/2026  16:51:37  PAGE 89


      000000F8H.2 SFRSYM    DATA     BIT       OISVH
      000000F8H.4 SFRSYM    DATA     BIT       OISWH
      000000F8H.1 SFRSYM    DATA     BIT       OISUL
      000000DFH   SFRSYM    DATA     BYTE      CAN_REC
      000000A8H   SFRSYM    DATA     BYTE      IE
      000000F8H.3 SFRSYM    DATA     BIT       OISVL
      000000F9H   SFRSYM    DATA     BYTE      PI_CR
      000000F8H.5 SFRSYM    DATA     BIT       OISWL
      000000DEH   SFRSYM    DATA     BYTE      CAN_TEC
      000000B4H   SFRSYM    DATA     BYTE      CAN_IER
      000000B6H   SFRSYM    DATA     BYTE      CAN_IFR
      000000AAH   SFRSYM    DATA     WORD      TIM2__CNTR
      000000DDH   SFRSYM    DATA     BYTE      CAN_LIM
      000000A2H   SFRSYM    DATA     WORD      TIM3__CNTR
      000000F1H   SFRSYM    DATA     BYTE      OSC_CFG
      000000E2H   SFRSYM    DATA     BYTE      HALL_CR
      00000092H   SFRSYM    DATA     WORD      TIM4__CNTR
      00000098H.0 SFRSYM    DATA     BIT       RI
      00000098H.6 SFRSYM    DATA     BIT       UT_MOD0
      00000098H.7 SFRSYM    DATA     BIT       UT_MOD1
      000000D0H.7 SFRSYM    DATA     BIT       CY
      00000098H.1 SFRSYM    DATA     BIT       TI
      00000084H   SFRSYM    DATA     BYTE      FLA_KEY
      000000CFH   SFRSYM    DATA     BYTE      CAN_ESR
      00000098H   SFRSYM    DATA     BYTE      UT_CR
      00000099H   SFRSYM    DATA     BYTE      UT_DR
      000000D0H.2 SFRSYM    DATA     BIT       OV
      0000009AH   SFRSYM    DATA     WORD      UT_BAUD
      000000D8H.2 SFRSYM    DATA     BIT       UT2RB8
      000000D8H.3 SFRSYM    DATA     BIT       UT2TB8
      000000BBH   SFRSYM    DATA     BYTE      LIN_CSR
      000000D8H.5 SFRSYM    DATA     BIT       UT2SM2
      00000087H   SFRSYM    DATA     BYTE      PCON
      00000088H   SFRSYM    DATA     BYTE      TCON
      00000082H   SFRSYM    DATA     WORD      DPTR
      00000088H.2 SFRSYM    DATA     BIT       IF0
      000000D8H.4 SFRSYM    DATA     BIT       UT2REN
      000000AEH   SFRSYM    DATA     WORD      TIM2__ARR
      000000A1H   SFRSYM    DATA     BYTE      TIM2_CR0
      000000A6H   SFRSYM    DATA     WORD      TIM3__ARR
      0000009CH   SFRSYM    DATA     BYTE      TIM3_CR0
      000000A9H   SFRSYM    DATA     BYTE      TIM2_CR1
      00000096H   SFRSYM    DATA     WORD      TIM4__ARR
      0000009EH   SFRSYM    DATA     BYTE      TIM4_CR0
      0000009DH   SFRSYM    DATA     BYTE      TIM3_CR1
      000000C4H   SFRSYM    DATA     BYTE      CAN_FIR0
      000000F8H   SFRSYM    DATA     BYTE      DRV_OUT
      0000009FH   SFRSYM    DATA     BYTE      TIM4_CR1
      000000C5H   SFRSYM    DATA     BYTE      CAN_FIR1
      000000C6H   SFRSYM    DATA     BYTE      CAN_FIR2
      000000E0H   SFRSYM    DATA     BYTE      ACC
      000000DBH   SFRSYM    DATA     BYTE      LVSR
      000000C7H   SFRSYM    DATA     BYTE      CAN_FIR3
      000000A8H.4 SFRSYM    DATA     BIT       ES0
      00000085H   SFRSYM    DATA     BYTE      FLA_CR
      000000CAH   SFRSYM    DATA     BYTE      CAN_FMR0
      0000008AH   SFRSYM    DATA     BYTE      IP0
      000000CBH   SFRSYM    DATA     BYTE      CAN_FMR1
      0000008BH   SFRSYM    DATA     BYTE      IP1
      000000CCH   SFRSYM    DATA     BYTE      CAN_FMR2
      0000008CH   SFRSYM    DATA     BYTE      IP2
      000000CDH   SFRSYM    DATA     BYTE      CAN_FMR3
      000000B7H   SFRSYM    DATA     BYTE      CAN_BTR0
      00000098H.2 SFRSYM    DATA     BIT       RB8
      0000008DH   SFRSYM    DATA     BYTE      IP3
LX51 LINKER/LOCATER V4.66.87.0                                                        06/22/2026  16:51:37  PAGE 90


      000000C2H   SFRSYM    DATA     BYTE      CAN_BTR1
      000000A8H.0 SFRSYM    DATA     BIT       EX0
      000000C3H   SFRSYM    DATA     BYTE      CAN_BTR2
      00000098H.3 SFRSYM    DATA     BIT       TB8
      000000A8H.2 SFRSYM    DATA     BIT       EX1
      000000D0H.0 SFRSYM    DATA     BIT       P
      000000BCH   SFRSYM    DATA     BYTE      LIN_ID
      000000D8H   SFRSYM    DATA     BYTE      UT2_CR
      00000089H   SFRSYM    DATA     BYTE      UT2_DR
      00000098H.5 SFRSYM    DATA     BIT       SM2
      000000D0H.3 SFRSYM    DATA     BIT       RS0
      000000D0H.4 SFRSYM    DATA     BIT       RS1
      000000B3H   SFRSYM    DATA     BYTE      CAN_SR
      000000B9H   SFRSYM    DATA     BYTE      LIN_CR
      000000C1H   SFRSYM    DATA     BYTE      MDU_CR
      000000F8H.7 SFRSYM    DATA     BIT       MOE
      000000BEH   SFRSYM    DATA     WORD      LIN_BAUD
      000000A8H.5 SFRSYM    DATA     BIT       MCDIE
      00000088H.6 SFRSYM    DATA     BIT       MCDIF
      00000098H.4 SFRSYM    DATA     BIT       REN
      000000D7H   SFRSYM    DATA     BYTE      CMP_SR
      000000BAH   SFRSYM    DATA     BYTE      LIN_SR
      000000D8H.6 SFRSYM    DATA     BIT       UT2MOD0
      000000D8H.7 SFRSYM    DATA     BIT       UT2MOD1
      000000D1H   SFRSYM    DATA     BYTE      P1_IE
      000000D2H   SFRSYM    DATA     BYTE      P1_IF
      000000D3H   SFRSYM    DATA     BYTE      P4_IE
      000000D4H   SFRSYM    DATA     BYTE      P4_IF
      000000ACH   SFRSYM    DATA     WORD      TIM2__DR
      000000FCH   SFRSYM    DATA     BYTE      P0_OE
      000000A4H   SFRSYM    DATA     WORD      TIM3__DR
      000000FDH   SFRSYM    DATA     BYTE      P1_OE
      00000094H   SFRSYM    DATA     WORD      TIM4__DR
      000000D0H.5 SFRSYM    DATA     BIT       F0
      000000FEH   SFRSYM    DATA     BYTE      P2_OE
      000000D0H.1 SFRSYM    DATA     BIT       F1
      000000FFH   SFRSYM    DATA     BYTE      P3_OE
      00000080H.0 SFRSYM    DATA     BIT       GP00
      000000D8H.0 SFRSYM    DATA     BIT       UT2RI
      000000E9H   SFRSYM    DATA     BYTE      P4_OE
      00000090H.0 SFRSYM    DATA     BIT       GP10
      00000080H.1 SFRSYM    DATA     BIT       GP01
      000000B1H   SFRSYM    DATA     BYTE      CAN_CR0
      000000A8H.6 SFRSYM    DATA     BIT       RTCIE
      000000A0H.0 SFRSYM    DATA     BIT       GP20
      00000090H.1 SFRSYM    DATA     BIT       GP11
      00000080H.2 SFRSYM    DATA     BIT       GP02
      000000B2H   SFRSYM    DATA     BYTE      CAN_CR1
      000000D8H.1 SFRSYM    DATA     BIT       UT2TI
      000000B0H.0 SFRSYM    DATA     BIT       GP30
      000000A0H.1 SFRSYM    DATA     BIT       GP21
      00000090H.2 SFRSYM    DATA     BIT       GP12
      00000080H.3 SFRSYM    DATA     BIT       GP03
      000000B5H   SFRSYM    DATA     BYTE      CAN_CR2
      000000A8H.1 SFRSYM    DATA     BIT       TSDIE
      000000D0H   SFRSYM    DATA     BYTE      PSW
      000000B0H.1 SFRSYM    DATA     BIT       GP31
      000000A0H.2 SFRSYM    DATA     BIT       GP22
      00000090H.3 SFRSYM    DATA     BIT       GP13
      00000080H.4 SFRSYM    DATA     BIT       GP04
      000000A8H.3 SFRSYM    DATA     BIT       SPIIE
      00000088H.5 SFRSYM    DATA     BIT       TSDIF
      000000B8H.1 SFRSYM    DATA     BIT       GP41
      000000B0H.2 SFRSYM    DATA     BIT       GP32
      000000A0H.3 SFRSYM    DATA     BIT       GP23
LX51 LINKER/LOCATER V4.66.87.0                                                        06/22/2026  16:51:37  PAGE 91


      00000090H.4 SFRSYM    DATA     BIT       GP14
      00000080H.5 SFRSYM    DATA     BIT       GP05
      000000B8H.2 SFRSYM    DATA     BIT       GP42
      000000B0H.3 SFRSYM    DATA     BIT       GP33
      000000A0H.4 SFRSYM    DATA     BIT       GP24
      00000090H.5 SFRSYM    DATA     BIT       GP15
      00000080H.6 SFRSYM    DATA     BIT       GP06
      00000088H.0 SFRSYM    DATA     BIT       IT00

      010024B6H   BLOCK     CODE     ---       LVL=0
      010024B6H   LINE      CODE     ---       #22
      010024B6H   LINE      CODE     ---       #23
      010024B6H   LINE      CODE     ---       #24
      010024C0H   LINE      CODE     ---       #25
      010024C4H   LINE      CODE     ---       #26
      010024CBH   LINE      CODE     ---       #27
      010024D5H   LINE      CODE     ---       #28
      010024D8H   LINE      CODE     ---       #32
      010024D8H   LINE      CODE     ---       #33
      010024DBH   LINE      CODE     ---       #34
      010024DEH   LINE      CODE     ---       #35
      010024DEH   LINE      CODE     ---       #53
      010024E5H   LINE      CODE     ---       #56
      010024E9H   LINE      CODE     ---       #63
      010024EDH   LINE      CODE     ---       #64
      010024F1H   LINE      CODE     ---       #67
      010024FBH   LINE      CODE     ---       #69
      010024FEH   LINE      CODE     ---       #70
      01002501H   LINE      CODE     ---       #71
      01002508H   LINE      CODE     ---       #73
      0100250DH   LINE      CODE     ---       #76
      01002511H   LINE      CODE     ---       #78
      01002515H   LINE      CODE     ---       #79
      01002519H   LINE      CODE     ---       #80
      0100251DH   LINE      CODE     ---       #82
      01002524H   LINE      CODE     ---       #83
      01002529H   LINE      CODE     ---       #84
      ---         BLOCKEND  ---      ---       LVL=0

      ---         MODULE    ---      ---       GPIO
      01002BF4H   PUBLIC    CODE     ---       GPIO_Init
      000000B8H.3 SFRSYM    DATA     BIT       GP43
      000000B0H.4 SFRSYM    DATA     BIT       GP34
      000000A0H.5 SFRSYM    DATA     BIT       GP25
      00000090H.6 SFRSYM    DATA     BIT       GP16
      00000080H.7 SFRSYM    DATA     BIT       GP07
      00000088H.1 SFRSYM    DATA     BIT       IT01
      00000088H.3 SFRSYM    DATA     BIT       IT10
      000000B8H.4 SFRSYM    DATA     BIT       GP44
      000000B0H.5 SFRSYM    DATA     BIT       GP35
      000000A0H.6 SFRSYM    DATA     BIT       GP26
      00000090H.7 SFRSYM    DATA     BIT       GP17
      00000080H   SFRSYM    DATA     BYTE      P0
      00000088H.4 SFRSYM    DATA     BIT       IT11
      000000C9H   SFRSYM    DATA     BYTE      RST_SR
      000000D9H   SFRSYM    DATA     BYTE      EVT_FILT
      000000B8H.5 SFRSYM    DATA     BIT       GP45
      000000B0H.6 SFRSYM    DATA     BIT       GP36
      000000A0H.7 SFRSYM    DATA     BIT       GP27
      00000090H   SFRSYM    DATA     BYTE      P1
      000000BDH   SFRSYM    DATA     BYTE      LIN_SIZE
      000000B8H.6 SFRSYM    DATA     BIT       GP46
      000000B0H.7 SFRSYM    DATA     BIT       GP37
      000000A0H   SFRSYM    DATA     BYTE      P2
      000000B0H   SFRSYM    DATA     BYTE      P3
LX51 LINKER/LOCATER V4.66.87.0                                                        06/22/2026  16:51:37  PAGE 92


      000000B8H   SFRSYM    DATA     BYTE      P4
      000000CEH   SFRSYM    DATA     BYTE      CAN_ALC
      000000D0H.6 SFRSYM    DATA     BIT       AC
      000000A8H.7 SFRSYM    DATA     BIT       EA
      000000D5H   SFRSYM    DATA     BYTE      CMP_CR0
      000000D6H   SFRSYM    DATA     BYTE      CMP_CR1
      000000DAH   SFRSYM    DATA     BYTE      CMP_CR2
      000000DCH   SFRSYM    DATA     BYTE      CMP_CR3
      000000F8H.0 SFRSYM    DATA     BIT       OISUH
      000000E1H   SFRSYM    DATA     BYTE      CMP_CR4
      000000F8H.2 SFRSYM    DATA     BIT       OISVH
      000000F8H.4 SFRSYM    DATA     BIT       OISWH
      000000F8H.1 SFRSYM    DATA     BIT       OISUL
      000000DFH   SFRSYM    DATA     BYTE      CAN_REC
      000000A8H   SFRSYM    DATA     BYTE      IE
      000000F8H.3 SFRSYM    DATA     BIT       OISVL
      000000F9H   SFRSYM    DATA     BYTE      PI_CR
      000000F8H.5 SFRSYM    DATA     BIT       OISWL
      000000DEH   SFRSYM    DATA     BYTE      CAN_TEC
      000000B4H   SFRSYM    DATA     BYTE      CAN_IER
      000000B6H   SFRSYM    DATA     BYTE      CAN_IFR
      000000AAH   SFRSYM    DATA     WORD      TIM2__CNTR
      000000DDH   SFRSYM    DATA     BYTE      CAN_LIM
      000000A2H   SFRSYM    DATA     WORD      TIM3__CNTR
      000000F1H   SFRSYM    DATA     BYTE      OSC_CFG
      000000E2H   SFRSYM    DATA     BYTE      HALL_CR
      00000092H   SFRSYM    DATA     WORD      TIM4__CNTR
      00000098H.0 SFRSYM    DATA     BIT       RI
      00000098H.6 SFRSYM    DATA     BIT       UT_MOD0
      00000098H.7 SFRSYM    DATA     BIT       UT_MOD1
      000000D0H.7 SFRSYM    DATA     BIT       CY
      00000098H.1 SFRSYM    DATA     BIT       TI
      00000084H   SFRSYM    DATA     BYTE      FLA_KEY
      000000CFH   SFRSYM    DATA     BYTE      CAN_ESR
      00000098H   SFRSYM    DATA     BYTE      UT_CR
      00000099H   SFRSYM    DATA     BYTE      UT_DR
      000000D0H.2 SFRSYM    DATA     BIT       OV
      0000009AH   SFRSYM    DATA     WORD      UT_BAUD
      000000D8H.2 SFRSYM    DATA     BIT       UT2RB8
      000000D8H.3 SFRSYM    DATA     BIT       UT2TB8
      000000BBH   SFRSYM    DATA     BYTE      LIN_CSR
      000000D8H.5 SFRSYM    DATA     BIT       UT2SM2
      00000087H   SFRSYM    DATA     BYTE      PCON
      00000088H   SFRSYM    DATA     BYTE      TCON
      00000082H   SFRSYM    DATA     WORD      DPTR
      00000088H.2 SFRSYM    DATA     BIT       IF0
      000000D8H.4 SFRSYM    DATA     BIT       UT2REN
      000000AEH   SFRSYM    DATA     WORD      TIM2__ARR
      000000A1H   SFRSYM    DATA     BYTE      TIM2_CR0
      000000A6H   SFRSYM    DATA     WORD      TIM3__ARR
      0000009CH   SFRSYM    DATA     BYTE      TIM3_CR0
      000000A9H   SFRSYM    DATA     BYTE      TIM2_CR1
      00000096H   SFRSYM    DATA     WORD      TIM4__ARR
      0000009EH   SFRSYM    DATA     BYTE      TIM4_CR0
      0000009DH   SFRSYM    DATA     BYTE      TIM3_CR1
      000000C4H   SFRSYM    DATA     BYTE      CAN_FIR0
      000000F8H   SFRSYM    DATA     BYTE      DRV_OUT
      0000009FH   SFRSYM    DATA     BYTE      TIM4_CR1
      000000C5H   SFRSYM    DATA     BYTE      CAN_FIR1
      000000C6H   SFRSYM    DATA     BYTE      CAN_FIR2
      000000E0H   SFRSYM    DATA     BYTE      ACC
      000000DBH   SFRSYM    DATA     BYTE      LVSR
      000000C7H   SFRSYM    DATA     BYTE      CAN_FIR3
      000000A8H.4 SFRSYM    DATA     BIT       ES0
      00000085H   SFRSYM    DATA     BYTE      FLA_CR
LX51 LINKER/LOCATER V4.66.87.0                                                        06/22/2026  16:51:37  PAGE 93


      000000CAH   SFRSYM    DATA     BYTE      CAN_FMR0
      0000008AH   SFRSYM    DATA     BYTE      IP0
      000000CBH   SFRSYM    DATA     BYTE      CAN_FMR1
      0000008BH   SFRSYM    DATA     BYTE      IP1
      000000CCH   SFRSYM    DATA     BYTE      CAN_FMR2
      0000008CH   SFRSYM    DATA     BYTE      IP2
      000000CDH   SFRSYM    DATA     BYTE      CAN_FMR3
      000000B7H   SFRSYM    DATA     BYTE      CAN_BTR0
      00000098H.2 SFRSYM    DATA     BIT       RB8
      0000008DH   SFRSYM    DATA     BYTE      IP3
      000000C2H   SFRSYM    DATA     BYTE      CAN_BTR1
      000000A8H.0 SFRSYM    DATA     BIT       EX0
      000000C3H   SFRSYM    DATA     BYTE      CAN_BTR2
      00000098H.3 SFRSYM    DATA     BIT       TB8
      000000A8H.2 SFRSYM    DATA     BIT       EX1
      000000D0H.0 SFRSYM    DATA     BIT       P
      000000BCH   SFRSYM    DATA     BYTE      LIN_ID
      000000D8H   SFRSYM    DATA     BYTE      UT2_CR
      00000089H   SFRSYM    DATA     BYTE      UT2_DR
      00000098H.5 SFRSYM    DATA     BIT       SM2
      000000D0H.3 SFRSYM    DATA     BIT       RS0
      000000D0H.4 SFRSYM    DATA     BIT       RS1
      000000B3H   SFRSYM    DATA     BYTE      CAN_SR
      000000B9H   SFRSYM    DATA     BYTE      LIN_CR
      000000C1H   SFRSYM    DATA     BYTE      MDU_CR
      000000F8H.7 SFRSYM    DATA     BIT       MOE
      000000BEH   SFRSYM    DATA     WORD      LIN_BAUD
      000000A8H.5 SFRSYM    DATA     BIT       MCDIE
      00000088H.6 SFRSYM    DATA     BIT       MCDIF
      00000098H.4 SFRSYM    DATA     BIT       REN
      000000D7H   SFRSYM    DATA     BYTE      CMP_SR
      000000BAH   SFRSYM    DATA     BYTE      LIN_SR
      000000D8H.6 SFRSYM    DATA     BIT       UT2MOD0
      000000D8H.7 SFRSYM    DATA     BIT       UT2MOD1
      000000D1H   SFRSYM    DATA     BYTE      P1_IE
      000000D2H   SFRSYM    DATA     BYTE      P1_IF
      000000D3H   SFRSYM    DATA     BYTE      P4_IE
      000000D4H   SFRSYM    DATA     BYTE      P4_IF
      000000ACH   SFRSYM    DATA     WORD      TIM2__DR
      000000FCH   SFRSYM    DATA     BYTE      P0_OE
      000000A4H   SFRSYM    DATA     WORD      TIM3__DR
      000000FDH   SFRSYM    DATA     BYTE      P1_OE
      00000094H   SFRSYM    DATA     WORD      TIM4__DR
      000000D0H.5 SFRSYM    DATA     BIT       F0
      000000FEH   SFRSYM    DATA     BYTE      P2_OE
      000000D0H.1 SFRSYM    DATA     BIT       F1
      000000FFH   SFRSYM    DATA     BYTE      P3_OE
      00000080H.0 SFRSYM    DATA     BIT       GP00
      000000D8H.0 SFRSYM    DATA     BIT       UT2RI
      000000E9H   SFRSYM    DATA     BYTE      P4_OE
      00000090H.0 SFRSYM    DATA     BIT       GP10
      00000080H.1 SFRSYM    DATA     BIT       GP01
      000000B1H   SFRSYM    DATA     BYTE      CAN_CR0
      000000A8H.6 SFRSYM    DATA     BIT       RTCIE
      000000A0H.0 SFRSYM    DATA     BIT       GP20
      00000090H.1 SFRSYM    DATA     BIT       GP11
      00000080H.2 SFRSYM    DATA     BIT       GP02
      000000B2H   SFRSYM    DATA     BYTE      CAN_CR1
      000000D8H.1 SFRSYM    DATA     BIT       UT2TI
      000000B0H.0 SFRSYM    DATA     BIT       GP30
      000000A0H.1 SFRSYM    DATA     BIT       GP21
      00000090H.2 SFRSYM    DATA     BIT       GP12
      00000080H.3 SFRSYM    DATA     BIT       GP03
      000000B5H   SFRSYM    DATA     BYTE      CAN_CR2
      000000A8H.1 SFRSYM    DATA     BIT       TSDIE
LX51 LINKER/LOCATER V4.66.87.0                                                        06/22/2026  16:51:37  PAGE 94


      000000D0H   SFRSYM    DATA     BYTE      PSW
      000000B0H.1 SFRSYM    DATA     BIT       GP31
      000000A0H.2 SFRSYM    DATA     BIT       GP22
      00000090H.3 SFRSYM    DATA     BIT       GP13
      00000080H.4 SFRSYM    DATA     BIT       GP04
      000000A8H.3 SFRSYM    DATA     BIT       SPIIE
      00000088H.5 SFRSYM    DATA     BIT       TSDIF
      000000B8H.1 SFRSYM    DATA     BIT       GP41
      000000B0H.2 SFRSYM    DATA     BIT       GP32
      000000A0H.3 SFRSYM    DATA     BIT       GP23
      00000090H.4 SFRSYM    DATA     BIT       GP14
      00000080H.5 SFRSYM    DATA     BIT       GP05
      000000B8H.2 SFRSYM    DATA     BIT       GP42
      000000B0H.3 SFRSYM    DATA     BIT       GP33
      000000A0H.4 SFRSYM    DATA     BIT       GP24
      00000090H.5 SFRSYM    DATA     BIT       GP15
      00000080H.6 SFRSYM    DATA     BIT       GP06
      00000088H.0 SFRSYM    DATA     BIT       IT00

      01002BF4H   BLOCK     CODE     ---       LVL=0
      01002BF4H   LINE      CODE     ---       #17
      01002BF4H   LINE      CODE     ---       #18
      01002BF4H   LINE      CODE     ---       #24
      01002BF7H   LINE      CODE     ---       #25
      01002BFEH   LINE      CODE     ---       #26
      01002C00H   LINE      CODE     ---       #28
      01002C03H   LINE      CODE     ---       #29
      01002C0AH   LINE      CODE     ---       #30
      01002C0CH   LINE      CODE     ---       #33
      ---         BLOCKEND  ---      ---       LVL=0

      ---         MODULE    ---      ---       I2C
      000000B8H.3 SFRSYM    DATA     BIT       GP43
      000000B0H.4 SFRSYM    DATA     BIT       GP34
      000000A0H.5 SFRSYM    DATA     BIT       GP25
      00000090H.6 SFRSYM    DATA     BIT       GP16
      00000080H.7 SFRSYM    DATA     BIT       GP07
      00000088H.1 SFRSYM    DATA     BIT       IT01
      00000088H.3 SFRSYM    DATA     BIT       IT10
      000000B8H.4 SFRSYM    DATA     BIT       GP44
      000000B0H.5 SFRSYM    DATA     BIT       GP35
      000000A0H.6 SFRSYM    DATA     BIT       GP26
      00000090H.7 SFRSYM    DATA     BIT       GP17
      00000080H   SFRSYM    DATA     BYTE      P0
      00000088H.4 SFRSYM    DATA     BIT       IT11
      000000C9H   SFRSYM    DATA     BYTE      RST_SR
      000000D9H   SFRSYM    DATA     BYTE      EVT_FILT
      000000B8H.5 SFRSYM    DATA     BIT       GP45
      000000B0H.6 SFRSYM    DATA     BIT       GP36
      000000A0H.7 SFRSYM    DATA     BIT       GP27
      00000090H   SFRSYM    DATA     BYTE      P1
      000000BDH   SFRSYM    DATA     BYTE      LIN_SIZE
      000000B8H.6 SFRSYM    DATA     BIT       GP46
      000000B0H.7 SFRSYM    DATA     BIT       GP37
      000000A0H   SFRSYM    DATA     BYTE      P2
      000000B0H   SFRSYM    DATA     BYTE      P3
      000000B8H   SFRSYM    DATA     BYTE      P4
      000000CEH   SFRSYM    DATA     BYTE      CAN_ALC
      000000D0H.6 SFRSYM    DATA     BIT       AC
      000000A8H.7 SFRSYM    DATA     BIT       EA
      000000D5H   SFRSYM    DATA     BYTE      CMP_CR0
      000000D6H   SFRSYM    DATA     BYTE      CMP_CR1
      000000DAH   SFRSYM    DATA     BYTE      CMP_CR2
      000000DCH   SFRSYM    DATA     BYTE      CMP_CR3
      000000F8H.0 SFRSYM    DATA     BIT       OISUH
LX51 LINKER/LOCATER V4.66.87.0                                                        06/22/2026  16:51:37  PAGE 95


      000000E1H   SFRSYM    DATA     BYTE      CMP_CR4
      000000F8H.2 SFRSYM    DATA     BIT       OISVH
      000000F8H.4 SFRSYM    DATA     BIT       OISWH
      000000F8H.1 SFRSYM    DATA     BIT       OISUL
      000000DFH   SFRSYM    DATA     BYTE      CAN_REC
      000000A8H   SFRSYM    DATA     BYTE      IE
      000000F8H.3 SFRSYM    DATA     BIT       OISVL
      000000F9H   SFRSYM    DATA     BYTE      PI_CR
      000000F8H.5 SFRSYM    DATA     BIT       OISWL
      000000DEH   SFRSYM    DATA     BYTE      CAN_TEC
      000000B4H   SFRSYM    DATA     BYTE      CAN_IER
      000000B6H   SFRSYM    DATA     BYTE      CAN_IFR
      000000AAH   SFRSYM    DATA     WORD      TIM2__CNTR
      000000DDH   SFRSYM    DATA     BYTE      CAN_LIM
      000000A2H   SFRSYM    DATA     WORD      TIM3__CNTR
      000000F1H   SFRSYM    DATA     BYTE      OSC_CFG
      000000E2H   SFRSYM    DATA     BYTE      HALL_CR
      00000092H   SFRSYM    DATA     WORD      TIM4__CNTR
      00000098H.0 SFRSYM    DATA     BIT       RI
      00000098H.6 SFRSYM    DATA     BIT       UT_MOD0
      00000098H.7 SFRSYM    DATA     BIT       UT_MOD1
      000000D0H.7 SFRSYM    DATA     BIT       CY
      00000098H.1 SFRSYM    DATA     BIT       TI
      00000084H   SFRSYM    DATA     BYTE      FLA_KEY
      000000CFH   SFRSYM    DATA     BYTE      CAN_ESR
      00000098H   SFRSYM    DATA     BYTE      UT_CR
      00000099H   SFRSYM    DATA     BYTE      UT_DR
      000000D0H.2 SFRSYM    DATA     BIT       OV
      0000009AH   SFRSYM    DATA     WORD      UT_BAUD
      000000D8H.2 SFRSYM    DATA     BIT       UT2RB8
      000000D8H.3 SFRSYM    DATA     BIT       UT2TB8
      000000BBH   SFRSYM    DATA     BYTE      LIN_CSR
      000000D8H.5 SFRSYM    DATA     BIT       UT2SM2
      00000087H   SFRSYM    DATA     BYTE      PCON
      00000088H   SFRSYM    DATA     BYTE      TCON
      00000082H   SFRSYM    DATA     WORD      DPTR
      00000088H.2 SFRSYM    DATA     BIT       IF0
      000000D8H.4 SFRSYM    DATA     BIT       UT2REN
      000000AEH   SFRSYM    DATA     WORD      TIM2__ARR
      000000A1H   SFRSYM    DATA     BYTE      TIM2_CR0
      000000A6H   SFRSYM    DATA     WORD      TIM3__ARR
      0000009CH   SFRSYM    DATA     BYTE      TIM3_CR0
      000000A9H   SFRSYM    DATA     BYTE      TIM2_CR1
      00000096H   SFRSYM    DATA     WORD      TIM4__ARR
      0000009EH   SFRSYM    DATA     BYTE      TIM4_CR0
      0000009DH   SFRSYM    DATA     BYTE      TIM3_CR1
      000000C4H   SFRSYM    DATA     BYTE      CAN_FIR0
      000000F8H   SFRSYM    DATA     BYTE      DRV_OUT
      0000009FH   SFRSYM    DATA     BYTE      TIM4_CR1
      000000C5H   SFRSYM    DATA     BYTE      CAN_FIR1
      000000C6H   SFRSYM    DATA     BYTE      CAN_FIR2
      000000E0H   SFRSYM    DATA     BYTE      ACC
      000000DBH   SFRSYM    DATA     BYTE      LVSR
      000000C7H   SFRSYM    DATA     BYTE      CAN_FIR3
      000000A8H.4 SFRSYM    DATA     BIT       ES0
      00000085H   SFRSYM    DATA     BYTE      FLA_CR
      000000CAH   SFRSYM    DATA     BYTE      CAN_FMR0
      0000008AH   SFRSYM    DATA     BYTE      IP0
      000000CBH   SFRSYM    DATA     BYTE      CAN_FMR1
      0000008BH   SFRSYM    DATA     BYTE      IP1
      000000CCH   SFRSYM    DATA     BYTE      CAN_FMR2
      0000008CH   SFRSYM    DATA     BYTE      IP2
      000000CDH   SFRSYM    DATA     BYTE      CAN_FMR3
      000000B7H   SFRSYM    DATA     BYTE      CAN_BTR0
      00000098H.2 SFRSYM    DATA     BIT       RB8
LX51 LINKER/LOCATER V4.66.87.0                                                        06/22/2026  16:51:37  PAGE 96


      0000008DH   SFRSYM    DATA     BYTE      IP3
      000000C2H   SFRSYM    DATA     BYTE      CAN_BTR1
      000000A8H.0 SFRSYM    DATA     BIT       EX0
      000000C3H   SFRSYM    DATA     BYTE      CAN_BTR2
      00000098H.3 SFRSYM    DATA     BIT       TB8
      000000A8H.2 SFRSYM    DATA     BIT       EX1
      000000D0H.0 SFRSYM    DATA     BIT       P
      000000BCH   SFRSYM    DATA     BYTE      LIN_ID
      000000D8H   SFRSYM    DATA     BYTE      UT2_CR
      00000089H   SFRSYM    DATA     BYTE      UT2_DR
      00000098H.5 SFRSYM    DATA     BIT       SM2
      000000D0H.3 SFRSYM    DATA     BIT       RS0
      000000D0H.4 SFRSYM    DATA     BIT       RS1
      000000B3H   SFRSYM    DATA     BYTE      CAN_SR
      000000B9H   SFRSYM    DATA     BYTE      LIN_CR
      000000C1H   SFRSYM    DATA     BYTE      MDU_CR
      000000F8H.7 SFRSYM    DATA     BIT       MOE
      000000BEH   SFRSYM    DATA     WORD      LIN_BAUD
      000000A8H.5 SFRSYM    DATA     BIT       MCDIE
      00000088H.6 SFRSYM    DATA     BIT       MCDIF
      00000098H.4 SFRSYM    DATA     BIT       REN
      000000D7H   SFRSYM    DATA     BYTE      CMP_SR
      000000BAH   SFRSYM    DATA     BYTE      LIN_SR
      000000D8H.6 SFRSYM    DATA     BIT       UT2MOD0
      000000D8H.7 SFRSYM    DATA     BIT       UT2MOD1
      000000D1H   SFRSYM    DATA     BYTE      P1_IE
      000000D2H   SFRSYM    DATA     BYTE      P1_IF
      000000D3H   SFRSYM    DATA     BYTE      P4_IE
      000000D4H   SFRSYM    DATA     BYTE      P4_IF
      000000ACH   SFRSYM    DATA     WORD      TIM2__DR
      000000FCH   SFRSYM    DATA     BYTE      P0_OE
      000000A4H   SFRSYM    DATA     WORD      TIM3__DR
      000000FDH   SFRSYM    DATA     BYTE      P1_OE
      00000094H   SFRSYM    DATA     WORD      TIM4__DR
      000000D0H.5 SFRSYM    DATA     BIT       F0
      000000FEH   SFRSYM    DATA     BYTE      P2_OE
      000000D0H.1 SFRSYM    DATA     BIT       F1
      000000FFH   SFRSYM    DATA     BYTE      P3_OE
      00000080H.0 SFRSYM    DATA     BIT       GP00
      000000D8H.0 SFRSYM    DATA     BIT       UT2RI
      000000E9H   SFRSYM    DATA     BYTE      P4_OE
      00000090H.0 SFRSYM    DATA     BIT       GP10
      00000080H.1 SFRSYM    DATA     BIT       GP01
      000000B1H   SFRSYM    DATA     BYTE      CAN_CR0
      000000A8H.6 SFRSYM    DATA     BIT       RTCIE
      000000A0H.0 SFRSYM    DATA     BIT       GP20
      00000090H.1 SFRSYM    DATA     BIT       GP11
      00000080H.2 SFRSYM    DATA     BIT       GP02
      000000B2H   SFRSYM    DATA     BYTE      CAN_CR1
      000000D8H.1 SFRSYM    DATA     BIT       UT2TI
      000000B0H.0 SFRSYM    DATA     BIT       GP30
      000000A0H.1 SFRSYM    DATA     BIT       GP21
      00000090H.2 SFRSYM    DATA     BIT       GP12
      00000080H.3 SFRSYM    DATA     BIT       GP03
      000000B5H   SFRSYM    DATA     BYTE      CAN_CR2
      000000A8H.1 SFRSYM    DATA     BIT       TSDIE
      000000D0H   SFRSYM    DATA     BYTE      PSW
      000000B0H.1 SFRSYM    DATA     BIT       GP31
      000000A0H.2 SFRSYM    DATA     BIT       GP22
      00000090H.3 SFRSYM    DATA     BIT       GP13
      00000080H.4 SFRSYM    DATA     BIT       GP04
      000000A8H.3 SFRSYM    DATA     BIT       SPIIE
      00000088H.5 SFRSYM    DATA     BIT       TSDIF
      000000B8H.1 SFRSYM    DATA     BIT       GP41
      000000B0H.2 SFRSYM    DATA     BIT       GP32
LX51 LINKER/LOCATER V4.66.87.0                                                        06/22/2026  16:51:37  PAGE 97


      000000A0H.3 SFRSYM    DATA     BIT       GP23
      00000090H.4 SFRSYM    DATA     BIT       GP14
      00000080H.5 SFRSYM    DATA     BIT       GP05
      000000B8H.2 SFRSYM    DATA     BIT       GP42
      000000B0H.3 SFRSYM    DATA     BIT       GP33
      000000A0H.4 SFRSYM    DATA     BIT       GP24
      00000090H.5 SFRSYM    DATA     BIT       GP15
      00000080H.6 SFRSYM    DATA     BIT       GP06
      00000088H.0 SFRSYM    DATA     BIT       IT00

      ---         MODULE    ---      ---       PIINIT
      01002AF8H   PUBLIC    CODE     ---       PI_Init
      000000B8H.3 SFRSYM    DATA     BIT       GP43
      000000B0H.4 SFRSYM    DATA     BIT       GP34
      000000A0H.5 SFRSYM    DATA     BIT       GP25
      00000090H.6 SFRSYM    DATA     BIT       GP16
      00000080H.7 SFRSYM    DATA     BIT       GP07
      00000088H.1 SFRSYM    DATA     BIT       IT01
      00000088H.3 SFRSYM    DATA     BIT       IT10
      000000B8H.4 SFRSYM    DATA     BIT       GP44
      000000B0H.5 SFRSYM    DATA     BIT       GP35
      000000A0H.6 SFRSYM    DATA     BIT       GP26
      00000090H.7 SFRSYM    DATA     BIT       GP17
      00000080H   SFRSYM    DATA     BYTE      P0
      00000088H.4 SFRSYM    DATA     BIT       IT11
      000000C9H   SFRSYM    DATA     BYTE      RST_SR
      000000D9H   SFRSYM    DATA     BYTE      EVT_FILT
      000000B8H.5 SFRSYM    DATA     BIT       GP45
      000000B0H.6 SFRSYM    DATA     BIT       GP36
      000000A0H.7 SFRSYM    DATA     BIT       GP27
      00000090H   SFRSYM    DATA     BYTE      P1
      000000BDH   SFRSYM    DATA     BYTE      LIN_SIZE
      000000B8H.6 SFRSYM    DATA     BIT       GP46
      000000B0H.7 SFRSYM    DATA     BIT       GP37
      000000A0H   SFRSYM    DATA     BYTE      P2
      000000B0H   SFRSYM    DATA     BYTE      P3
      000000B8H   SFRSYM    DATA     BYTE      P4
      000000CEH   SFRSYM    DATA     BYTE      CAN_ALC
      000000D0H.6 SFRSYM    DATA     BIT       AC
      000000A8H.7 SFRSYM    DATA     BIT       EA
      000000D5H   SFRSYM    DATA     BYTE      CMP_CR0
      000000D6H   SFRSYM    DATA     BYTE      CMP_CR1
      000000DAH   SFRSYM    DATA     BYTE      CMP_CR2
      000000DCH   SFRSYM    DATA     BYTE      CMP_CR3
      000000F8H.0 SFRSYM    DATA     BIT       OISUH
      000000E1H   SFRSYM    DATA     BYTE      CMP_CR4
      000000F8H.2 SFRSYM    DATA     BIT       OISVH
      000000F8H.4 SFRSYM    DATA     BIT       OISWH
      000000F8H.1 SFRSYM    DATA     BIT       OISUL
      000000DFH   SFRSYM    DATA     BYTE      CAN_REC
      000000A8H   SFRSYM    DATA     BYTE      IE
      000000F8H.3 SFRSYM    DATA     BIT       OISVL
      000000F9H   SFRSYM    DATA     BYTE      PI_CR
      000000F8H.5 SFRSYM    DATA     BIT       OISWL
      000000DEH   SFRSYM    DATA     BYTE      CAN_TEC
      000000B4H   SFRSYM    DATA     BYTE      CAN_IER
      000000B6H   SFRSYM    DATA     BYTE      CAN_IFR
      000000AAH   SFRSYM    DATA     WORD      TIM2__CNTR
      000000DDH   SFRSYM    DATA     BYTE      CAN_LIM
      000000A2H   SFRSYM    DATA     WORD      TIM3__CNTR
      000000F1H   SFRSYM    DATA     BYTE      OSC_CFG
      000000E2H   SFRSYM    DATA     BYTE      HALL_CR
      00000092H   SFRSYM    DATA     WORD      TIM4__CNTR
      00000098H.0 SFRSYM    DATA     BIT       RI
      00000098H.6 SFRSYM    DATA     BIT       UT_MOD0
LX51 LINKER/LOCATER V4.66.87.0                                                        06/22/2026  16:51:37  PAGE 98


      00000098H.7 SFRSYM    DATA     BIT       UT_MOD1
      000000D0H.7 SFRSYM    DATA     BIT       CY
      00000098H.1 SFRSYM    DATA     BIT       TI
      00000084H   SFRSYM    DATA     BYTE      FLA_KEY
      000000CFH   SFRSYM    DATA     BYTE      CAN_ESR
      00000098H   SFRSYM    DATA     BYTE      UT_CR
      00000099H   SFRSYM    DATA     BYTE      UT_DR
      000000D0H.2 SFRSYM    DATA     BIT       OV
      0000009AH   SFRSYM    DATA     WORD      UT_BAUD
      000000D8H.2 SFRSYM    DATA     BIT       UT2RB8
      000000D8H.3 SFRSYM    DATA     BIT       UT2TB8
      000000BBH   SFRSYM    DATA     BYTE      LIN_CSR
      000000D8H.5 SFRSYM    DATA     BIT       UT2SM2
      00000087H   SFRSYM    DATA     BYTE      PCON
      00000088H   SFRSYM    DATA     BYTE      TCON
      00000082H   SFRSYM    DATA     WORD      DPTR
      00000088H.2 SFRSYM    DATA     BIT       IF0
      000000D8H.4 SFRSYM    DATA     BIT       UT2REN
      000000AEH   SFRSYM    DATA     WORD      TIM2__ARR
      000000A1H   SFRSYM    DATA     BYTE      TIM2_CR0
      000000A6H   SFRSYM    DATA     WORD      TIM3__ARR
      0000009CH   SFRSYM    DATA     BYTE      TIM3_CR0
      000000A9H   SFRSYM    DATA     BYTE      TIM2_CR1
      00000096H   SFRSYM    DATA     WORD      TIM4__ARR
      0000009EH   SFRSYM    DATA     BYTE      TIM4_CR0
      0000009DH   SFRSYM    DATA     BYTE      TIM3_CR1
      000000C4H   SFRSYM    DATA     BYTE      CAN_FIR0
      000000F8H   SFRSYM    DATA     BYTE      DRV_OUT
      0000009FH   SFRSYM    DATA     BYTE      TIM4_CR1
      000000C5H   SFRSYM    DATA     BYTE      CAN_FIR1
      000000C6H   SFRSYM    DATA     BYTE      CAN_FIR2
      000000E0H   SFRSYM    DATA     BYTE      ACC
      000000DBH   SFRSYM    DATA     BYTE      LVSR
      000000C7H   SFRSYM    DATA     BYTE      CAN_FIR3
      000000A8H.4 SFRSYM    DATA     BIT       ES0
      00000085H   SFRSYM    DATA     BYTE      FLA_CR
      000000CAH   SFRSYM    DATA     BYTE      CAN_FMR0
      0000008AH   SFRSYM    DATA     BYTE      IP0
      000000CBH   SFRSYM    DATA     BYTE      CAN_FMR1
      0000008BH   SFRSYM    DATA     BYTE      IP1
      000000CCH   SFRSYM    DATA     BYTE      CAN_FMR2
      0000008CH   SFRSYM    DATA     BYTE      IP2
      000000CDH   SFRSYM    DATA     BYTE      CAN_FMR3
      000000B7H   SFRSYM    DATA     BYTE      CAN_BTR0
      00000098H.2 SFRSYM    DATA     BIT       RB8
      0000008DH   SFRSYM    DATA     BYTE      IP3
      000000C2H   SFRSYM    DATA     BYTE      CAN_BTR1
      000000A8H.0 SFRSYM    DATA     BIT       EX0
      000000C3H   SFRSYM    DATA     BYTE      CAN_BTR2
      00000098H.3 SFRSYM    DATA     BIT       TB8
      000000A8H.2 SFRSYM    DATA     BIT       EX1
      000000D0H.0 SFRSYM    DATA     BIT       P
      000000BCH   SFRSYM    DATA     BYTE      LIN_ID
      000000D8H   SFRSYM    DATA     BYTE      UT2_CR
      00000089H   SFRSYM    DATA     BYTE      UT2_DR
      00000098H.5 SFRSYM    DATA     BIT       SM2
      000000D0H.3 SFRSYM    DATA     BIT       RS0
      000000D0H.4 SFRSYM    DATA     BIT       RS1
      000000B3H   SFRSYM    DATA     BYTE      CAN_SR
      000000B9H   SFRSYM    DATA     BYTE      LIN_CR
      000000C1H   SFRSYM    DATA     BYTE      MDU_CR
      000000F8H.7 SFRSYM    DATA     BIT       MOE
      000000BEH   SFRSYM    DATA     WORD      LIN_BAUD
      000000A8H.5 SFRSYM    DATA     BIT       MCDIE
      00000088H.6 SFRSYM    DATA     BIT       MCDIF
LX51 LINKER/LOCATER V4.66.87.0                                                        06/22/2026  16:51:37  PAGE 99


      00000098H.4 SFRSYM    DATA     BIT       REN
      000000D7H   SFRSYM    DATA     BYTE      CMP_SR
      000000BAH   SFRSYM    DATA     BYTE      LIN_SR
      000000D8H.6 SFRSYM    DATA     BIT       UT2MOD0
      000000D8H.7 SFRSYM    DATA     BIT       UT2MOD1
      000000D1H   SFRSYM    DATA     BYTE      P1_IE
      000000D2H   SFRSYM    DATA     BYTE      P1_IF
      000000D3H   SFRSYM    DATA     BYTE      P4_IE
      000000D4H   SFRSYM    DATA     BYTE      P4_IF
      000000ACH   SFRSYM    DATA     WORD      TIM2__DR
      000000FCH   SFRSYM    DATA     BYTE      P0_OE
      000000A4H   SFRSYM    DATA     WORD      TIM3__DR
      000000FDH   SFRSYM    DATA     BYTE      P1_OE
      00000094H   SFRSYM    DATA     WORD      TIM4__DR
      000000D0H.5 SFRSYM    DATA     BIT       F0
      000000FEH   SFRSYM    DATA     BYTE      P2_OE
      000000D0H.1 SFRSYM    DATA     BIT       F1
      000000FFH   SFRSYM    DATA     BYTE      P3_OE
      00000080H.0 SFRSYM    DATA     BIT       GP00
      000000D8H.0 SFRSYM    DATA     BIT       UT2RI
      000000E9H   SFRSYM    DATA     BYTE      P4_OE
      00000090H.0 SFRSYM    DATA     BIT       GP10
      00000080H.1 SFRSYM    DATA     BIT       GP01
      000000B1H   SFRSYM    DATA     BYTE      CAN_CR0
      000000A8H.6 SFRSYM    DATA     BIT       RTCIE
      000000A0H.0 SFRSYM    DATA     BIT       GP20
      00000090H.1 SFRSYM    DATA     BIT       GP11
      00000080H.2 SFRSYM    DATA     BIT       GP02
      000000B2H   SFRSYM    DATA     BYTE      CAN_CR1
      000000D8H.1 SFRSYM    DATA     BIT       UT2TI
      000000B0H.0 SFRSYM    DATA     BIT       GP30
      000000A0H.1 SFRSYM    DATA     BIT       GP21
      00000090H.2 SFRSYM    DATA     BIT       GP12
      00000080H.3 SFRSYM    DATA     BIT       GP03
      000000B5H   SFRSYM    DATA     BYTE      CAN_CR2
      000000A8H.1 SFRSYM    DATA     BIT       TSDIE
      000000D0H   SFRSYM    DATA     BYTE      PSW
      000000B0H.1 SFRSYM    DATA     BIT       GP31
      000000A0H.2 SFRSYM    DATA     BIT       GP22
      00000090H.3 SFRSYM    DATA     BIT       GP13
      00000080H.4 SFRSYM    DATA     BIT       GP04
      000000A8H.3 SFRSYM    DATA     BIT       SPIIE
      00000088H.5 SFRSYM    DATA     BIT       TSDIF
      000000B8H.1 SFRSYM    DATA     BIT       GP41
      000000B0H.2 SFRSYM    DATA     BIT       GP32
      000000A0H.3 SFRSYM    DATA     BIT       GP23
      00000090H.4 SFRSYM    DATA     BIT       GP14
      00000080H.5 SFRSYM    DATA     BIT       GP05
      000000B8H.2 SFRSYM    DATA     BIT       GP42
      000000B0H.3 SFRSYM    DATA     BIT       GP33
      000000A0H.4 SFRSYM    DATA     BIT       GP24
      00000090H.5 SFRSYM    DATA     BIT       GP15
      00000080H.6 SFRSYM    DATA     BIT       GP06
      00000088H.0 SFRSYM    DATA     BIT       IT00

      01002C80H   BLOCK     CODE     ---       LVL=0
      ---         BLOCKEND  ---      ---       LVL=0

      01002AF8H   BLOCK     CODE     ---       LVL=0
      01002AF8H   LINE      CODE     ---       #21
      01002AF8H   LINE      CODE     ---       #22
      01002AF8H   LINE      CODE     ---       #23
      01002AFFH   LINE      CODE     ---       #24
      01002B05H   LINE      CODE     ---       #25
      01002B08H   LINE      CODE     ---       #26
LX51 LINKER/LOCATER V4.66.87.0                                                        06/22/2026  16:51:37  PAGE 100


      01002B0CH   LINE      CODE     ---       #27
      01002B0FH   LINE      CODE     ---       #28
      01002B13H   LINE      CODE     ---       #29
      01002B19H   LINE      CODE     ---       #30
      01002B21H   LINE      CODE     ---       #31
      ---         BLOCKEND  ---      ---       LVL=0

      ---         MODULE    ---      ---       SPI
      000000B8H.3 SFRSYM    DATA     BIT       GP43
      000000B0H.4 SFRSYM    DATA     BIT       GP34
      000000A0H.5 SFRSYM    DATA     BIT       GP25
      00000090H.6 SFRSYM    DATA     BIT       GP16
      00000080H.7 SFRSYM    DATA     BIT       GP07
      00000088H.1 SFRSYM    DATA     BIT       IT01
      00000088H.3 SFRSYM    DATA     BIT       IT10
      000000B8H.4 SFRSYM    DATA     BIT       GP44
      000000B0H.5 SFRSYM    DATA     BIT       GP35
      000000A0H.6 SFRSYM    DATA     BIT       GP26
      00000090H.7 SFRSYM    DATA     BIT       GP17
      00000080H   SFRSYM    DATA     BYTE      P0
      00000088H.4 SFRSYM    DATA     BIT       IT11
      000000C9H   SFRSYM    DATA     BYTE      RST_SR
      000000D9H   SFRSYM    DATA     BYTE      EVT_FILT
      000000B8H.5 SFRSYM    DATA     BIT       GP45
      000000B0H.6 SFRSYM    DATA     BIT       GP36
      000000A0H.7 SFRSYM    DATA     BIT       GP27
      00000090H   SFRSYM    DATA     BYTE      P1
      000000BDH   SFRSYM    DATA     BYTE      LIN_SIZE
      000000B8H.6 SFRSYM    DATA     BIT       GP46
      000000B0H.7 SFRSYM    DATA     BIT       GP37
      000000A0H   SFRSYM    DATA     BYTE      P2
      000000B0H   SFRSYM    DATA     BYTE      P3
      000000B8H   SFRSYM    DATA     BYTE      P4
      000000CEH   SFRSYM    DATA     BYTE      CAN_ALC
      000000D0H.6 SFRSYM    DATA     BIT       AC
      000000A8H.7 SFRSYM    DATA     BIT       EA
      000000D5H   SFRSYM    DATA     BYTE      CMP_CR0
      000000D6H   SFRSYM    DATA     BYTE      CMP_CR1
      000000DAH   SFRSYM    DATA     BYTE      CMP_CR2
      000000DCH   SFRSYM    DATA     BYTE      CMP_CR3
      000000F8H.0 SFRSYM    DATA     BIT       OISUH
      000000E1H   SFRSYM    DATA     BYTE      CMP_CR4
      000000F8H.2 SFRSYM    DATA     BIT       OISVH
      000000F8H.4 SFRSYM    DATA     BIT       OISWH
      000000F8H.1 SFRSYM    DATA     BIT       OISUL
      000000DFH   SFRSYM    DATA     BYTE      CAN_REC
      000000A8H   SFRSYM    DATA     BYTE      IE
      000000F8H.3 SFRSYM    DATA     BIT       OISVL
      000000F9H   SFRSYM    DATA     BYTE      PI_CR
      000000F8H.5 SFRSYM    DATA     BIT       OISWL
      000000DEH   SFRSYM    DATA     BYTE      CAN_TEC
      000000B4H   SFRSYM    DATA     BYTE      CAN_IER
      000000B6H   SFRSYM    DATA     BYTE      CAN_IFR
      000000AAH   SFRSYM    DATA     WORD      TIM2__CNTR
      000000DDH   SFRSYM    DATA     BYTE      CAN_LIM
      000000A2H   SFRSYM    DATA     WORD      TIM3__CNTR
      000000F1H   SFRSYM    DATA     BYTE      OSC_CFG
      000000E2H   SFRSYM    DATA     BYTE      HALL_CR
      00000092H   SFRSYM    DATA     WORD      TIM4__CNTR
      00000098H.0 SFRSYM    DATA     BIT       RI
      00000098H.6 SFRSYM    DATA     BIT       UT_MOD0
      00000098H.7 SFRSYM    DATA     BIT       UT_MOD1
      000000D0H.7 SFRSYM    DATA     BIT       CY
      00000098H.1 SFRSYM    DATA     BIT       TI
      00000084H   SFRSYM    DATA     BYTE      FLA_KEY
LX51 LINKER/LOCATER V4.66.87.0                                                        06/22/2026  16:51:37  PAGE 101


      000000CFH   SFRSYM    DATA     BYTE      CAN_ESR
      00000098H   SFRSYM    DATA     BYTE      UT_CR
      00000099H   SFRSYM    DATA     BYTE      UT_DR
      000000D0H.2 SFRSYM    DATA     BIT       OV
      0000009AH   SFRSYM    DATA     WORD      UT_BAUD
      000000D8H.2 SFRSYM    DATA     BIT       UT2RB8
      000000D8H.3 SFRSYM    DATA     BIT       UT2TB8
      000000BBH   SFRSYM    DATA     BYTE      LIN_CSR
      000000D8H.5 SFRSYM    DATA     BIT       UT2SM2
      00000087H   SFRSYM    DATA     BYTE      PCON
      00000088H   SFRSYM    DATA     BYTE      TCON
      00000082H   SFRSYM    DATA     WORD      DPTR
      00000088H.2 SFRSYM    DATA     BIT       IF0
      000000D8H.4 SFRSYM    DATA     BIT       UT2REN
      000000AEH   SFRSYM    DATA     WORD      TIM2__ARR
      000000A1H   SFRSYM    DATA     BYTE      TIM2_CR0
      000000A6H   SFRSYM    DATA     WORD      TIM3__ARR
      0000009CH   SFRSYM    DATA     BYTE      TIM3_CR0
      000000A9H   SFRSYM    DATA     BYTE      TIM2_CR1
      00000096H   SFRSYM    DATA     WORD      TIM4__ARR
      0000009EH   SFRSYM    DATA     BYTE      TIM4_CR0
      0000009DH   SFRSYM    DATA     BYTE      TIM3_CR1
      000000C4H   SFRSYM    DATA     BYTE      CAN_FIR0
      000000F8H   SFRSYM    DATA     BYTE      DRV_OUT
      0000009FH   SFRSYM    DATA     BYTE      TIM4_CR1
      000000C5H   SFRSYM    DATA     BYTE      CAN_FIR1
      000000C6H   SFRSYM    DATA     BYTE      CAN_FIR2
      000000E0H   SFRSYM    DATA     BYTE      ACC
      000000DBH   SFRSYM    DATA     BYTE      LVSR
      000000C7H   SFRSYM    DATA     BYTE      CAN_FIR3
      000000A8H.4 SFRSYM    DATA     BIT       ES0
      00000085H   SFRSYM    DATA     BYTE      FLA_CR
      000000CAH   SFRSYM    DATA     BYTE      CAN_FMR0
      0000008AH   SFRSYM    DATA     BYTE      IP0
      000000CBH   SFRSYM    DATA     BYTE      CAN_FMR1
      0000008BH   SFRSYM    DATA     BYTE      IP1
      000000CCH   SFRSYM    DATA     BYTE      CAN_FMR2
      0000008CH   SFRSYM    DATA     BYTE      IP2
      000000CDH   SFRSYM    DATA     BYTE      CAN_FMR3
      000000B7H   SFRSYM    DATA     BYTE      CAN_BTR0
      00000098H.2 SFRSYM    DATA     BIT       RB8
      0000008DH   SFRSYM    DATA     BYTE      IP3
      000000C2H   SFRSYM    DATA     BYTE      CAN_BTR1
      000000A8H.0 SFRSYM    DATA     BIT       EX0
      000000C3H   SFRSYM    DATA     BYTE      CAN_BTR2
      00000098H.3 SFRSYM    DATA     BIT       TB8
      000000A8H.2 SFRSYM    DATA     BIT       EX1
      000000D0H.0 SFRSYM    DATA     BIT       P
      000000BCH   SFRSYM    DATA     BYTE      LIN_ID
      000000D8H   SFRSYM    DATA     BYTE      UT2_CR
      00000089H   SFRSYM    DATA     BYTE      UT2_DR
      00000098H.5 SFRSYM    DATA     BIT       SM2
      000000D0H.3 SFRSYM    DATA     BIT       RS0
      000000D0H.4 SFRSYM    DATA     BIT       RS1
      000000B3H   SFRSYM    DATA     BYTE      CAN_SR
      000000B9H   SFRSYM    DATA     BYTE      LIN_CR
      000000C1H   SFRSYM    DATA     BYTE      MDU_CR
      000000F8H.7 SFRSYM    DATA     BIT       MOE
      000000BEH   SFRSYM    DATA     WORD      LIN_BAUD
      000000A8H.5 SFRSYM    DATA     BIT       MCDIE
      00000088H.6 SFRSYM    DATA     BIT       MCDIF
      00000098H.4 SFRSYM    DATA     BIT       REN
      000000D7H   SFRSYM    DATA     BYTE      CMP_SR
      000000BAH   SFRSYM    DATA     BYTE      LIN_SR
      000000D8H.6 SFRSYM    DATA     BIT       UT2MOD0
LX51 LINKER/LOCATER V4.66.87.0                                                        06/22/2026  16:51:37  PAGE 102


      000000D8H.7 SFRSYM    DATA     BIT       UT2MOD1
      000000D1H   SFRSYM    DATA     BYTE      P1_IE
      000000D2H   SFRSYM    DATA     BYTE      P1_IF
      000000D3H   SFRSYM    DATA     BYTE      P4_IE
      000000D4H   SFRSYM    DATA     BYTE      P4_IF
      000000ACH   SFRSYM    DATA     WORD      TIM2__DR
      000000FCH   SFRSYM    DATA     BYTE      P0_OE
      000000A4H   SFRSYM    DATA     WORD      TIM3__DR
      000000FDH   SFRSYM    DATA     BYTE      P1_OE
      00000094H   SFRSYM    DATA     WORD      TIM4__DR
      000000D0H.5 SFRSYM    DATA     BIT       F0
      000000FEH   SFRSYM    DATA     BYTE      P2_OE
      000000D0H.1 SFRSYM    DATA     BIT       F1
      000000FFH   SFRSYM    DATA     BYTE      P3_OE
      00000080H.0 SFRSYM    DATA     BIT       GP00
      000000D8H.0 SFRSYM    DATA     BIT       UT2RI
      000000E9H   SFRSYM    DATA     BYTE      P4_OE
      00000090H.0 SFRSYM    DATA     BIT       GP10
      00000080H.1 SFRSYM    DATA     BIT       GP01
      000000B1H   SFRSYM    DATA     BYTE      CAN_CR0
      000000A8H.6 SFRSYM    DATA     BIT       RTCIE
      000000A0H.0 SFRSYM    DATA     BIT       GP20
      00000090H.1 SFRSYM    DATA     BIT       GP11
      00000080H.2 SFRSYM    DATA     BIT       GP02
      000000B2H   SFRSYM    DATA     BYTE      CAN_CR1
      000000D8H.1 SFRSYM    DATA     BIT       UT2TI
      000000B0H.0 SFRSYM    DATA     BIT       GP30
      000000A0H.1 SFRSYM    DATA     BIT       GP21
      00000090H.2 SFRSYM    DATA     BIT       GP12
      00000080H.3 SFRSYM    DATA     BIT       GP03
      000000B5H   SFRSYM    DATA     BYTE      CAN_CR2
      000000A8H.1 SFRSYM    DATA     BIT       TSDIE
      000000D0H   SFRSYM    DATA     BYTE      PSW
      000000B0H.1 SFRSYM    DATA     BIT       GP31
      000000A0H.2 SFRSYM    DATA     BIT       GP22
      00000090H.3 SFRSYM    DATA     BIT       GP13
      00000080H.4 SFRSYM    DATA     BIT       GP04
      000000A8H.3 SFRSYM    DATA     BIT       SPIIE
      00000088H.5 SFRSYM    DATA     BIT       TSDIF
      000000B8H.1 SFRSYM    DATA     BIT       GP41
      000000B0H.2 SFRSYM    DATA     BIT       GP32
      000000A0H.3 SFRSYM    DATA     BIT       GP23
      00000090H.4 SFRSYM    DATA     BIT       GP14
      00000080H.5 SFRSYM    DATA     BIT       GP05
      000000B8H.2 SFRSYM    DATA     BIT       GP42
      000000B0H.3 SFRSYM    DATA     BIT       GP33
      000000A0H.4 SFRSYM    DATA     BIT       GP24
      00000090H.5 SFRSYM    DATA     BIT       GP15
      00000080H.6 SFRSYM    DATA     BIT       GP06
      00000088H.0 SFRSYM    DATA     BIT       IT00

      ---         MODULE    ---      ---       TIMER
      0100203AH   PUBLIC    CODE     ---       TIM1_HALL_Init
      000000B8H.3 SFRSYM    DATA     BIT       GP43
      000000B0H.4 SFRSYM    DATA     BIT       GP34
      000000A0H.5 SFRSYM    DATA     BIT       GP25
      00000090H.6 SFRSYM    DATA     BIT       GP16
      00000080H.7 SFRSYM    DATA     BIT       GP07
      00000088H.1 SFRSYM    DATA     BIT       IT01
      00000088H.3 SFRSYM    DATA     BIT       IT10
      000000B8H.4 SFRSYM    DATA     BIT       GP44
      000000B0H.5 SFRSYM    DATA     BIT       GP35
      000000A0H.6 SFRSYM    DATA     BIT       GP26
      00000090H.7 SFRSYM    DATA     BIT       GP17
      00000080H   SFRSYM    DATA     BYTE      P0
LX51 LINKER/LOCATER V4.66.87.0                                                        06/22/2026  16:51:37  PAGE 103


      00000088H.4 SFRSYM    DATA     BIT       IT11
      000000C9H   SFRSYM    DATA     BYTE      RST_SR
      000000D9H   SFRSYM    DATA     BYTE      EVT_FILT
      000000B8H.5 SFRSYM    DATA     BIT       GP45
      000000B0H.6 SFRSYM    DATA     BIT       GP36
      000000A0H.7 SFRSYM    DATA     BIT       GP27
      00000090H   SFRSYM    DATA     BYTE      P1
      000000BDH   SFRSYM    DATA     BYTE      LIN_SIZE
      000000B8H.6 SFRSYM    DATA     BIT       GP46
      000000B0H.7 SFRSYM    DATA     BIT       GP37
      000000A0H   SFRSYM    DATA     BYTE      P2
      000000B0H   SFRSYM    DATA     BYTE      P3
      000000B8H   SFRSYM    DATA     BYTE      P4
      000000CEH   SFRSYM    DATA     BYTE      CAN_ALC
      000000D0H.6 SFRSYM    DATA     BIT       AC
      000000A8H.7 SFRSYM    DATA     BIT       EA
      000000D5H   SFRSYM    DATA     BYTE      CMP_CR0
      000000D6H   SFRSYM    DATA     BYTE      CMP_CR1
      000000DAH   SFRSYM    DATA     BYTE      CMP_CR2
      000000DCH   SFRSYM    DATA     BYTE      CMP_CR3
      000000F8H.0 SFRSYM    DATA     BIT       OISUH
      000000E1H   SFRSYM    DATA     BYTE      CMP_CR4
      000000F8H.2 SFRSYM    DATA     BIT       OISVH
      000000F8H.4 SFRSYM    DATA     BIT       OISWH
      000000F8H.1 SFRSYM    DATA     BIT       OISUL
      000000DFH   SFRSYM    DATA     BYTE      CAN_REC
      000000A8H   SFRSYM    DATA     BYTE      IE
      000000F8H.3 SFRSYM    DATA     BIT       OISVL
      000000F9H   SFRSYM    DATA     BYTE      PI_CR
      000000F8H.5 SFRSYM    DATA     BIT       OISWL
      000000DEH   SFRSYM    DATA     BYTE      CAN_TEC
      000000B4H   SFRSYM    DATA     BYTE      CAN_IER
      000000B6H   SFRSYM    DATA     BYTE      CAN_IFR
      000000AAH   SFRSYM    DATA     WORD      TIM2__CNTR
      000000DDH   SFRSYM    DATA     BYTE      CAN_LIM
      000000A2H   SFRSYM    DATA     WORD      TIM3__CNTR
      000000F1H   SFRSYM    DATA     BYTE      OSC_CFG
      000000E2H   SFRSYM    DATA     BYTE      HALL_CR
      00000092H   SFRSYM    DATA     WORD      TIM4__CNTR
      00000098H.0 SFRSYM    DATA     BIT       RI
      00000098H.6 SFRSYM    DATA     BIT       UT_MOD0
      00000098H.7 SFRSYM    DATA     BIT       UT_MOD1
      000000D0H.7 SFRSYM    DATA     BIT       CY
      00000098H.1 SFRSYM    DATA     BIT       TI
      00000084H   SFRSYM    DATA     BYTE      FLA_KEY
      000000CFH   SFRSYM    DATA     BYTE      CAN_ESR
      00000098H   SFRSYM    DATA     BYTE      UT_CR
      00000099H   SFRSYM    DATA     BYTE      UT_DR
      000000D0H.2 SFRSYM    DATA     BIT       OV
      0000009AH   SFRSYM    DATA     WORD      UT_BAUD
      000000D8H.2 SFRSYM    DATA     BIT       UT2RB8
      000000D8H.3 SFRSYM    DATA     BIT       UT2TB8
      000000BBH   SFRSYM    DATA     BYTE      LIN_CSR
      000000D8H.5 SFRSYM    DATA     BIT       UT2SM2
      00000087H   SFRSYM    DATA     BYTE      PCON
      00000088H   SFRSYM    DATA     BYTE      TCON
      00000082H   SFRSYM    DATA     WORD      DPTR
      00000088H.2 SFRSYM    DATA     BIT       IF0
      000000D8H.4 SFRSYM    DATA     BIT       UT2REN
      000000AEH   SFRSYM    DATA     WORD      TIM2__ARR
      000000A1H   SFRSYM    DATA     BYTE      TIM2_CR0
      000000A6H   SFRSYM    DATA     WORD      TIM3__ARR
      0000009CH   SFRSYM    DATA     BYTE      TIM3_CR0
      000000A9H   SFRSYM    DATA     BYTE      TIM2_CR1
      00000096H   SFRSYM    DATA     WORD      TIM4__ARR
LX51 LINKER/LOCATER V4.66.87.0                                                        06/22/2026  16:51:37  PAGE 104


      0000009EH   SFRSYM    DATA     BYTE      TIM4_CR0
      0000009DH   SFRSYM    DATA     BYTE      TIM3_CR1
      000000C4H   SFRSYM    DATA     BYTE      CAN_FIR0
      000000F8H   SFRSYM    DATA     BYTE      DRV_OUT
      0000009FH   SFRSYM    DATA     BYTE      TIM4_CR1
      000000C5H   SFRSYM    DATA     BYTE      CAN_FIR1
      000000C6H   SFRSYM    DATA     BYTE      CAN_FIR2
      000000E0H   SFRSYM    DATA     BYTE      ACC
      000000DBH   SFRSYM    DATA     BYTE      LVSR
      000000C7H   SFRSYM    DATA     BYTE      CAN_FIR3
      000000A8H.4 SFRSYM    DATA     BIT       ES0
      00000085H   SFRSYM    DATA     BYTE      FLA_CR
      000000CAH   SFRSYM    DATA     BYTE      CAN_FMR0
      0000008AH   SFRSYM    DATA     BYTE      IP0
      000000CBH   SFRSYM    DATA     BYTE      CAN_FMR1
      0000008BH   SFRSYM    DATA     BYTE      IP1
      000000CCH   SFRSYM    DATA     BYTE      CAN_FMR2
      0000008CH   SFRSYM    DATA     BYTE      IP2
      000000CDH   SFRSYM    DATA     BYTE      CAN_FMR3
      000000B7H   SFRSYM    DATA     BYTE      CAN_BTR0
      00000098H.2 SFRSYM    DATA     BIT       RB8
      0000008DH   SFRSYM    DATA     BYTE      IP3
      000000C2H   SFRSYM    DATA     BYTE      CAN_BTR1
      000000A8H.0 SFRSYM    DATA     BIT       EX0
      000000C3H   SFRSYM    DATA     BYTE      CAN_BTR2
      00000098H.3 SFRSYM    DATA     BIT       TB8
      000000A8H.2 SFRSYM    DATA     BIT       EX1
      000000D0H.0 SFRSYM    DATA     BIT       P
      000000BCH   SFRSYM    DATA     BYTE      LIN_ID
      000000D8H   SFRSYM    DATA     BYTE      UT2_CR
      00000089H   SFRSYM    DATA     BYTE      UT2_DR
      00000098H.5 SFRSYM    DATA     BIT       SM2
      000000D0H.3 SFRSYM    DATA     BIT       RS0
      000000D0H.4 SFRSYM    DATA     BIT       RS1
      000000B3H   SFRSYM    DATA     BYTE      CAN_SR
      000000B9H   SFRSYM    DATA     BYTE      LIN_CR
      000000C1H   SFRSYM    DATA     BYTE      MDU_CR
      000000F8H.7 SFRSYM    DATA     BIT       MOE
      000000BEH   SFRSYM    DATA     WORD      LIN_BAUD
      000000A8H.5 SFRSYM    DATA     BIT       MCDIE
      00000088H.6 SFRSYM    DATA     BIT       MCDIF
      00000098H.4 SFRSYM    DATA     BIT       REN
      000000D7H   SFRSYM    DATA     BYTE      CMP_SR
      000000BAH   SFRSYM    DATA     BYTE      LIN_SR
      000000D8H.6 SFRSYM    DATA     BIT       UT2MOD0
      000000D8H.7 SFRSYM    DATA     BIT       UT2MOD1
      000000D1H   SFRSYM    DATA     BYTE      P1_IE
      000000D2H   SFRSYM    DATA     BYTE      P1_IF
      000000D3H   SFRSYM    DATA     BYTE      P4_IE
      000000D4H   SFRSYM    DATA     BYTE      P4_IF
      000000ACH   SFRSYM    DATA     WORD      TIM2__DR
      000000FCH   SFRSYM    DATA     BYTE      P0_OE
      000000A4H   SFRSYM    DATA     WORD      TIM3__DR
      000000FDH   SFRSYM    DATA     BYTE      P1_OE
      00000094H   SFRSYM    DATA     WORD      TIM4__DR
      000000D0H.5 SFRSYM    DATA     BIT       F0
      000000FEH   SFRSYM    DATA     BYTE      P2_OE
      000000D0H.1 SFRSYM    DATA     BIT       F1
      000000FFH   SFRSYM    DATA     BYTE      P3_OE
      00000080H.0 SFRSYM    DATA     BIT       GP00
      000000D8H.0 SFRSYM    DATA     BIT       UT2RI
      000000E9H   SFRSYM    DATA     BYTE      P4_OE
      00000090H.0 SFRSYM    DATA     BIT       GP10
      00000080H.1 SFRSYM    DATA     BIT       GP01
      000000B1H   SFRSYM    DATA     BYTE      CAN_CR0
LX51 LINKER/LOCATER V4.66.87.0                                                        06/22/2026  16:51:37  PAGE 105


      000000A8H.6 SFRSYM    DATA     BIT       RTCIE
      000000A0H.0 SFRSYM    DATA     BIT       GP20
      00000090H.1 SFRSYM    DATA     BIT       GP11
      00000080H.2 SFRSYM    DATA     BIT       GP02
      000000B2H   SFRSYM    DATA     BYTE      CAN_CR1
      000000D8H.1 SFRSYM    DATA     BIT       UT2TI
      000000B0H.0 SFRSYM    DATA     BIT       GP30
      000000A0H.1 SFRSYM    DATA     BIT       GP21
      00000090H.2 SFRSYM    DATA     BIT       GP12
      00000080H.3 SFRSYM    DATA     BIT       GP03
      000000B5H   SFRSYM    DATA     BYTE      CAN_CR2
      000000A8H.1 SFRSYM    DATA     BIT       TSDIE
      000000D0H   SFRSYM    DATA     BYTE      PSW
      000000B0H.1 SFRSYM    DATA     BIT       GP31
      000000A0H.2 SFRSYM    DATA     BIT       GP22
      00000090H.3 SFRSYM    DATA     BIT       GP13
      00000080H.4 SFRSYM    DATA     BIT       GP04
      000000A8H.3 SFRSYM    DATA     BIT       SPIIE
      00000088H.5 SFRSYM    DATA     BIT       TSDIF
      000000B8H.1 SFRSYM    DATA     BIT       GP41
      000000B0H.2 SFRSYM    DATA     BIT       GP32
      000000A0H.3 SFRSYM    DATA     BIT       GP23
      00000090H.4 SFRSYM    DATA     BIT       GP14
      00000080H.5 SFRSYM    DATA     BIT       GP05
      000000B8H.2 SFRSYM    DATA     BIT       GP42
      000000B0H.3 SFRSYM    DATA     BIT       GP33
      000000A0H.4 SFRSYM    DATA     BIT       GP24
      00000090H.5 SFRSYM    DATA     BIT       GP15
      00000080H.6 SFRSYM    DATA     BIT       GP06
      00000088H.0 SFRSYM    DATA     BIT       IT00

      0100203AH   BLOCK     CODE     ---       LVL=0
      0100203AH   LINE      CODE     ---       #25
      0100203AH   LINE      CODE     ---       #26
      0100203AH   LINE      CODE     ---       #28
      01002041H   LINE      CODE     ---       #31
      0100204AH   LINE      CODE     ---       #35
      01002054H   LINE      CODE     ---       #36
      0100205BH   LINE      CODE     ---       #44
      01002062H   LINE      CODE     ---       #45
      01002066H   LINE      CODE     ---       #46
      01002069H   LINE      CODE     ---       #49
      0100206FH   LINE      CODE     ---       #52
      01002085H   LINE      CODE     ---       #54
      0100208BH   LINE      CODE     ---       #57
      01002092H   LINE      CODE     ---       #58
      01002098H   LINE      CODE     ---       #59
      0100209FH   LINE      CODE     ---       #60
      010020A3H   LINE      CODE     ---       #61
      010020A7H   LINE      CODE     ---       #64
      010020ABH   LINE      CODE     ---       #67
      010020AFH   LINE      CODE     ---       #69
      010020B7H   LINE      CODE     ---       #72
      010020BEH   LINE      CODE     ---       #73
      010020C1H   LINE      CODE     ---       #74
      010020C4H   LINE      CODE     ---       #77
      010020CBH   LINE      CODE     ---       #80
      ---         BLOCKEND  ---      ---       LVL=0

      ---         MODULE    ---      ---       UART
      000000B8H.3 SFRSYM    DATA     BIT       GP43
      000000B0H.4 SFRSYM    DATA     BIT       GP34
      000000A0H.5 SFRSYM    DATA     BIT       GP25
      00000090H.6 SFRSYM    DATA     BIT       GP16
      00000080H.7 SFRSYM    DATA     BIT       GP07
LX51 LINKER/LOCATER V4.66.87.0                                                        06/22/2026  16:51:37  PAGE 106


      00000088H.1 SFRSYM    DATA     BIT       IT01
      00000088H.3 SFRSYM    DATA     BIT       IT10
      000000B8H.4 SFRSYM    DATA     BIT       GP44
      000000B0H.5 SFRSYM    DATA     BIT       GP35
      000000A0H.6 SFRSYM    DATA     BIT       GP26
      00000090H.7 SFRSYM    DATA     BIT       GP17
      00000080H   SFRSYM    DATA     BYTE      P0
      00000088H.4 SFRSYM    DATA     BIT       IT11
      000000C9H   SFRSYM    DATA     BYTE      RST_SR
      000000D9H   SFRSYM    DATA     BYTE      EVT_FILT
      000000B8H.5 SFRSYM    DATA     BIT       GP45
      000000B0H.6 SFRSYM    DATA     BIT       GP36
      000000A0H.7 SFRSYM    DATA     BIT       GP27
      00000090H   SFRSYM    DATA     BYTE      P1
      000000BDH   SFRSYM    DATA     BYTE      LIN_SIZE
      000000B8H.6 SFRSYM    DATA     BIT       GP46
      000000B0H.7 SFRSYM    DATA     BIT       GP37
      000000A0H   SFRSYM    DATA     BYTE      P2
      000000B0H   SFRSYM    DATA     BYTE      P3
      000000B8H   SFRSYM    DATA     BYTE      P4
      000000CEH   SFRSYM    DATA     BYTE      CAN_ALC
      000000D0H.6 SFRSYM    DATA     BIT       AC
      000000A8H.7 SFRSYM    DATA     BIT       EA
      000000D5H   SFRSYM    DATA     BYTE      CMP_CR0
      000000D6H   SFRSYM    DATA     BYTE      CMP_CR1
      000000DAH   SFRSYM    DATA     BYTE      CMP_CR2
      000000DCH   SFRSYM    DATA     BYTE      CMP_CR3
      000000F8H.0 SFRSYM    DATA     BIT       OISUH
      000000E1H   SFRSYM    DATA     BYTE      CMP_CR4
      000000F8H.2 SFRSYM    DATA     BIT       OISVH
      000000F8H.4 SFRSYM    DATA     BIT       OISWH
      000000F8H.1 SFRSYM    DATA     BIT       OISUL
      000000DFH   SFRSYM    DATA     BYTE      CAN_REC
      000000A8H   SFRSYM    DATA     BYTE      IE
      000000F8H.3 SFRSYM    DATA     BIT       OISVL
      000000F9H   SFRSYM    DATA     BYTE      PI_CR
      000000F8H.5 SFRSYM    DATA     BIT       OISWL
      000000DEH   SFRSYM    DATA     BYTE      CAN_TEC
      000000B4H   SFRSYM    DATA     BYTE      CAN_IER
      000000B6H   SFRSYM    DATA     BYTE      CAN_IFR
      000000AAH   SFRSYM    DATA     WORD      TIM2__CNTR
      000000DDH   SFRSYM    DATA     BYTE      CAN_LIM
      000000A2H   SFRSYM    DATA     WORD      TIM3__CNTR
      000000F1H   SFRSYM    DATA     BYTE      OSC_CFG
      000000E2H   SFRSYM    DATA     BYTE      HALL_CR
      00000092H   SFRSYM    DATA     WORD      TIM4__CNTR
      00000098H.0 SFRSYM    DATA     BIT       RI
      00000098H.6 SFRSYM    DATA     BIT       UT_MOD0
      00000098H.7 SFRSYM    DATA     BIT       UT_MOD1
      000000D0H.7 SFRSYM    DATA     BIT       CY
      00000098H.1 SFRSYM    DATA     BIT       TI
      00000084H   SFRSYM    DATA     BYTE      FLA_KEY
      000000CFH   SFRSYM    DATA     BYTE      CAN_ESR
      00000098H   SFRSYM    DATA     BYTE      UT_CR
      00000099H   SFRSYM    DATA     BYTE      UT_DR
      000000D0H.2 SFRSYM    DATA     BIT       OV
      0000009AH   SFRSYM    DATA     WORD      UT_BAUD
      000000D8H.2 SFRSYM    DATA     BIT       UT2RB8
      000000D8H.3 SFRSYM    DATA     BIT       UT2TB8
      000000BBH   SFRSYM    DATA     BYTE      LIN_CSR
      000000D8H.5 SFRSYM    DATA     BIT       UT2SM2
      00000087H   SFRSYM    DATA     BYTE      PCON
      00000088H   SFRSYM    DATA     BYTE      TCON
      00000082H   SFRSYM    DATA     WORD      DPTR
      00000088H.2 SFRSYM    DATA     BIT       IF0
LX51 LINKER/LOCATER V4.66.87.0                                                        06/22/2026  16:51:37  PAGE 107


      000000D8H.4 SFRSYM    DATA     BIT       UT2REN
      000000AEH   SFRSYM    DATA     WORD      TIM2__ARR
      000000A1H   SFRSYM    DATA     BYTE      TIM2_CR0
      000000A6H   SFRSYM    DATA     WORD      TIM3__ARR
      0000009CH   SFRSYM    DATA     BYTE      TIM3_CR0
      000000A9H   SFRSYM    DATA     BYTE      TIM2_CR1
      00000096H   SFRSYM    DATA     WORD      TIM4__ARR
      0000009EH   SFRSYM    DATA     BYTE      TIM4_CR0
      0000009DH   SFRSYM    DATA     BYTE      TIM3_CR1
      000000C4H   SFRSYM    DATA     BYTE      CAN_FIR0
      000000F8H   SFRSYM    DATA     BYTE      DRV_OUT
      0000009FH   SFRSYM    DATA     BYTE      TIM4_CR1
      000000C5H   SFRSYM    DATA     BYTE      CAN_FIR1
      000000C6H   SFRSYM    DATA     BYTE      CAN_FIR2
      000000E0H   SFRSYM    DATA     BYTE      ACC
      000000DBH   SFRSYM    DATA     BYTE      LVSR
      000000C7H   SFRSYM    DATA     BYTE      CAN_FIR3
      000000A8H.4 SFRSYM    DATA     BIT       ES0
      00000085H   SFRSYM    DATA     BYTE      FLA_CR
      000000CAH   SFRSYM    DATA     BYTE      CAN_FMR0
      0000008AH   SFRSYM    DATA     BYTE      IP0
      000000CBH   SFRSYM    DATA     BYTE      CAN_FMR1
      0000008BH   SFRSYM    DATA     BYTE      IP1
      000000CCH   SFRSYM    DATA     BYTE      CAN_FMR2
      0000008CH   SFRSYM    DATA     BYTE      IP2
      000000CDH   SFRSYM    DATA     BYTE      CAN_FMR3
      000000B7H   SFRSYM    DATA     BYTE      CAN_BTR0
      00000098H.2 SFRSYM    DATA     BIT       RB8
      0000008DH   SFRSYM    DATA     BYTE      IP3
      000000C2H   SFRSYM    DATA     BYTE      CAN_BTR1
      000000A8H.0 SFRSYM    DATA     BIT       EX0
      000000C3H   SFRSYM    DATA     BYTE      CAN_BTR2
      00000098H.3 SFRSYM    DATA     BIT       TB8
      000000A8H.2 SFRSYM    DATA     BIT       EX1
      000000D0H.0 SFRSYM    DATA     BIT       P
      000000BCH   SFRSYM    DATA     BYTE      LIN_ID
      000000D8H   SFRSYM    DATA     BYTE      UT2_CR
      00000089H   SFRSYM    DATA     BYTE      UT2_DR
      00000098H.5 SFRSYM    DATA     BIT       SM2
      000000D0H.3 SFRSYM    DATA     BIT       RS0
      000000D0H.4 SFRSYM    DATA     BIT       RS1
      000000B3H   SFRSYM    DATA     BYTE      CAN_SR
      000000B9H   SFRSYM    DATA     BYTE      LIN_CR
      000000C1H   SFRSYM    DATA     BYTE      MDU_CR
      000000F8H.7 SFRSYM    DATA     BIT       MOE
      000000BEH   SFRSYM    DATA     WORD      LIN_BAUD
      000000A8H.5 SFRSYM    DATA     BIT       MCDIE
      00000088H.6 SFRSYM    DATA     BIT       MCDIF
      00000098H.4 SFRSYM    DATA     BIT       REN
      000000D7H   SFRSYM    DATA     BYTE      CMP_SR
      000000BAH   SFRSYM    DATA     BYTE      LIN_SR
      000000D8H.6 SFRSYM    DATA     BIT       UT2MOD0
      000000D8H.7 SFRSYM    DATA     BIT       UT2MOD1
      000000D1H   SFRSYM    DATA     BYTE      P1_IE
      000000D2H   SFRSYM    DATA     BYTE      P1_IF
      000000D3H   SFRSYM    DATA     BYTE      P4_IE
      000000D4H   SFRSYM    DATA     BYTE      P4_IF
      000000ACH   SFRSYM    DATA     WORD      TIM2__DR
      000000FCH   SFRSYM    DATA     BYTE      P0_OE
      000000A4H   SFRSYM    DATA     WORD      TIM3__DR
      000000FDH   SFRSYM    DATA     BYTE      P1_OE
      00000094H   SFRSYM    DATA     WORD      TIM4__DR
      000000D0H.5 SFRSYM    DATA     BIT       F0
      000000FEH   SFRSYM    DATA     BYTE      P2_OE
      000000D0H.1 SFRSYM    DATA     BIT       F1
LX51 LINKER/LOCATER V4.66.87.0                                                        06/22/2026  16:51:37  PAGE 108


      000000FFH   SFRSYM    DATA     BYTE      P3_OE
      00000080H.0 SFRSYM    DATA     BIT       GP00
      000000D8H.0 SFRSYM    DATA     BIT       UT2RI
      000000E9H   SFRSYM    DATA     BYTE      P4_OE
      00000090H.0 SFRSYM    DATA     BIT       GP10
      00000080H.1 SFRSYM    DATA     BIT       GP01
      000000B1H   SFRSYM    DATA     BYTE      CAN_CR0
      000000A8H.6 SFRSYM    DATA     BIT       RTCIE
      000000A0H.0 SFRSYM    DATA     BIT       GP20
      00000090H.1 SFRSYM    DATA     BIT       GP11
      00000080H.2 SFRSYM    DATA     BIT       GP02
      000000B2H   SFRSYM    DATA     BYTE      CAN_CR1
      000000D8H.1 SFRSYM    DATA     BIT       UT2TI
      000000B0H.0 SFRSYM    DATA     BIT       GP30
      000000A0H.1 SFRSYM    DATA     BIT       GP21
      00000090H.2 SFRSYM    DATA     BIT       GP12
      00000080H.3 SFRSYM    DATA     BIT       GP03
      000000B5H   SFRSYM    DATA     BYTE      CAN_CR2
      000000A8H.1 SFRSYM    DATA     BIT       TSDIE
      000000D0H   SFRSYM    DATA     BYTE      PSW
      000000B0H.1 SFRSYM    DATA     BIT       GP31
      000000A0H.2 SFRSYM    DATA     BIT       GP22
      00000090H.3 SFRSYM    DATA     BIT       GP13
      00000080H.4 SFRSYM    DATA     BIT       GP04
      000000A8H.3 SFRSYM    DATA     BIT       SPIIE
      00000088H.5 SFRSYM    DATA     BIT       TSDIF
      000000B8H.1 SFRSYM    DATA     BIT       GP41
      000000B0H.2 SFRSYM    DATA     BIT       GP32
      000000A0H.3 SFRSYM    DATA     BIT       GP23
      00000090H.4 SFRSYM    DATA     BIT       GP14
      00000080H.5 SFRSYM    DATA     BIT       GP05
      000000B8H.2 SFRSYM    DATA     BIT       GP42
      000000B0H.3 SFRSYM    DATA     BIT       GP33
      000000A0H.4 SFRSYM    DATA     BIT       GP24
      00000090H.5 SFRSYM    DATA     BIT       GP15
      00000080H.6 SFRSYM    DATA     BIT       GP06
      00000088H.0 SFRSYM    DATA     BIT       IT00
      00000007H   SYMBOL    DATA     BYTE      c
      00000001H   SYMBOL    DATA     ---       str

      ---         MODULE    ---      ---       TSD
      000000B8H.3 SFRSYM    DATA     BIT       GP43
      000000B0H.4 SFRSYM    DATA     BIT       GP34
      000000A0H.5 SFRSYM    DATA     BIT       GP25
      00000090H.6 SFRSYM    DATA     BIT       GP16
      00000080H.7 SFRSYM    DATA     BIT       GP07
      00000088H.1 SFRSYM    DATA     BIT       IT01
      00000088H.3 SFRSYM    DATA     BIT       IT10
      000000B8H.4 SFRSYM    DATA     BIT       GP44
      000000B0H.5 SFRSYM    DATA     BIT       GP35
      000000A0H.6 SFRSYM    DATA     BIT       GP26
      00000090H.7 SFRSYM    DATA     BIT       GP17
      00000080H   SFRSYM    DATA     BYTE      P0
      00000088H.4 SFRSYM    DATA     BIT       IT11
      000000C9H   SFRSYM    DATA     BYTE      RST_SR
      000000D9H   SFRSYM    DATA     BYTE      EVT_FILT
      000000B8H.5 SFRSYM    DATA     BIT       GP45
      000000B0H.6 SFRSYM    DATA     BIT       GP36
      000000A0H.7 SFRSYM    DATA     BIT       GP27
      00000090H   SFRSYM    DATA     BYTE      P1
      000000BDH   SFRSYM    DATA     BYTE      LIN_SIZE
      000000B8H.6 SFRSYM    DATA     BIT       GP46
      000000B0H.7 SFRSYM    DATA     BIT       GP37
      000000A0H   SFRSYM    DATA     BYTE      P2
      000000B0H   SFRSYM    DATA     BYTE      P3
LX51 LINKER/LOCATER V4.66.87.0                                                        06/22/2026  16:51:37  PAGE 109


      000000B8H   SFRSYM    DATA     BYTE      P4
      000000CEH   SFRSYM    DATA     BYTE      CAN_ALC
      000000D0H.6 SFRSYM    DATA     BIT       AC
      000000A8H.7 SFRSYM    DATA     BIT       EA
      000000D5H   SFRSYM    DATA     BYTE      CMP_CR0
      000000D6H   SFRSYM    DATA     BYTE      CMP_CR1
      000000DAH   SFRSYM    DATA     BYTE      CMP_CR2
      000000DCH   SFRSYM    DATA     BYTE      CMP_CR3
      000000F8H.0 SFRSYM    DATA     BIT       OISUH
      000000E1H   SFRSYM    DATA     BYTE      CMP_CR4
      000000F8H.2 SFRSYM    DATA     BIT       OISVH
      000000F8H.4 SFRSYM    DATA     BIT       OISWH
      000000F8H.1 SFRSYM    DATA     BIT       OISUL
      000000DFH   SFRSYM    DATA     BYTE      CAN_REC
      000000A8H   SFRSYM    DATA     BYTE      IE
      000000F8H.3 SFRSYM    DATA     BIT       OISVL
      000000F9H   SFRSYM    DATA     BYTE      PI_CR
      000000F8H.5 SFRSYM    DATA     BIT       OISWL
      000000DEH   SFRSYM    DATA     BYTE      CAN_TEC
      000000B4H   SFRSYM    DATA     BYTE      CAN_IER
      000000B6H   SFRSYM    DATA     BYTE      CAN_IFR
      000000AAH   SFRSYM    DATA     WORD      TIM2__CNTR
      000000DDH   SFRSYM    DATA     BYTE      CAN_LIM
      000000A2H   SFRSYM    DATA     WORD      TIM3__CNTR
      000000F1H   SFRSYM    DATA     BYTE      OSC_CFG
      000000E2H   SFRSYM    DATA     BYTE      HALL_CR
      00000092H   SFRSYM    DATA     WORD      TIM4__CNTR
      00000098H.0 SFRSYM    DATA     BIT       RI
      00000098H.6 SFRSYM    DATA     BIT       UT_MOD0
      00000098H.7 SFRSYM    DATA     BIT       UT_MOD1
      000000D0H.7 SFRSYM    DATA     BIT       CY
      00000098H.1 SFRSYM    DATA     BIT       TI
      00000084H   SFRSYM    DATA     BYTE      FLA_KEY
      000000CFH   SFRSYM    DATA     BYTE      CAN_ESR
      00000098H   SFRSYM    DATA     BYTE      UT_CR
      00000099H   SFRSYM    DATA     BYTE      UT_DR
      000000D0H.2 SFRSYM    DATA     BIT       OV
      0000009AH   SFRSYM    DATA     WORD      UT_BAUD
      000000D8H.2 SFRSYM    DATA     BIT       UT2RB8
      000000D8H.3 SFRSYM    DATA     BIT       UT2TB8
      000000BBH   SFRSYM    DATA     BYTE      LIN_CSR
      000000D8H.5 SFRSYM    DATA     BIT       UT2SM2
      00000087H   SFRSYM    DATA     BYTE      PCON
      00000088H   SFRSYM    DATA     BYTE      TCON
      00000082H   SFRSYM    DATA     WORD      DPTR
      00000088H.2 SFRSYM    DATA     BIT       IF0
      000000D8H.4 SFRSYM    DATA     BIT       UT2REN
      000000AEH   SFRSYM    DATA     WORD      TIM2__ARR
      000000A1H   SFRSYM    DATA     BYTE      TIM2_CR0
      000000A6H   SFRSYM    DATA     WORD      TIM3__ARR
      0000009CH   SFRSYM    DATA     BYTE      TIM3_CR0
      000000A9H   SFRSYM    DATA     BYTE      TIM2_CR1
      00000096H   SFRSYM    DATA     WORD      TIM4__ARR
      0000009EH   SFRSYM    DATA     BYTE      TIM4_CR0
      0000009DH   SFRSYM    DATA     BYTE      TIM3_CR1
      000000C4H   SFRSYM    DATA     BYTE      CAN_FIR0
      000000F8H   SFRSYM    DATA     BYTE      DRV_OUT
      0000009FH   SFRSYM    DATA     BYTE      TIM4_CR1
      000000C5H   SFRSYM    DATA     BYTE      CAN_FIR1
      000000C6H   SFRSYM    DATA     BYTE      CAN_FIR2
      000000E0H   SFRSYM    DATA     BYTE      ACC
      000000DBH   SFRSYM    DATA     BYTE      LVSR
      000000C7H   SFRSYM    DATA     BYTE      CAN_FIR3
      000000A8H.4 SFRSYM    DATA     BIT       ES0
      00000085H   SFRSYM    DATA     BYTE      FLA_CR
LX51 LINKER/LOCATER V4.66.87.0                                                        06/22/2026  16:51:37  PAGE 110


      000000CAH   SFRSYM    DATA     BYTE      CAN_FMR0
      0000008AH   SFRSYM    DATA     BYTE      IP0
      000000CBH   SFRSYM    DATA     BYTE      CAN_FMR1
      0000008BH   SFRSYM    DATA     BYTE      IP1
      000000CCH   SFRSYM    DATA     BYTE      CAN_FMR2
      0000008CH   SFRSYM    DATA     BYTE      IP2
      000000CDH   SFRSYM    DATA     BYTE      CAN_FMR3
      000000B7H   SFRSYM    DATA     BYTE      CAN_BTR0
      00000098H.2 SFRSYM    DATA     BIT       RB8
      0000008DH   SFRSYM    DATA     BYTE      IP3
      000000C2H   SFRSYM    DATA     BYTE      CAN_BTR1
      000000A8H.0 SFRSYM    DATA     BIT       EX0
      000000C3H   SFRSYM    DATA     BYTE      CAN_BTR2
      00000098H.3 SFRSYM    DATA     BIT       TB8
      000000A8H.2 SFRSYM    DATA     BIT       EX1
      000000D0H.0 SFRSYM    DATA     BIT       P
      000000BCH   SFRSYM    DATA     BYTE      LIN_ID
      000000D8H   SFRSYM    DATA     BYTE      UT2_CR
      00000089H   SFRSYM    DATA     BYTE      UT2_DR
      00000098H.5 SFRSYM    DATA     BIT       SM2
      000000D0H.3 SFRSYM    DATA     BIT       RS0
      000000D0H.4 SFRSYM    DATA     BIT       RS1
      000000B3H   SFRSYM    DATA     BYTE      CAN_SR
      000000B9H   SFRSYM    DATA     BYTE      LIN_CR
      000000C1H   SFRSYM    DATA     BYTE      MDU_CR
      000000F8H.7 SFRSYM    DATA     BIT       MOE
      000000BEH   SFRSYM    DATA     WORD      LIN_BAUD
      000000A8H.5 SFRSYM    DATA     BIT       MCDIE
      00000088H.6 SFRSYM    DATA     BIT       MCDIF
      00000098H.4 SFRSYM    DATA     BIT       REN
      000000D7H   SFRSYM    DATA     BYTE      CMP_SR
      000000BAH   SFRSYM    DATA     BYTE      LIN_SR
      000000D8H.6 SFRSYM    DATA     BIT       UT2MOD0
      000000D8H.7 SFRSYM    DATA     BIT       UT2MOD1
      000000D1H   SFRSYM    DATA     BYTE      P1_IE
      000000D2H   SFRSYM    DATA     BYTE      P1_IF
      000000D3H   SFRSYM    DATA     BYTE      P4_IE
      000000D4H   SFRSYM    DATA     BYTE      P4_IF
      000000ACH   SFRSYM    DATA     WORD      TIM2__DR
      000000FCH   SFRSYM    DATA     BYTE      P0_OE
      000000A4H   SFRSYM    DATA     WORD      TIM3__DR
      000000FDH   SFRSYM    DATA     BYTE      P1_OE
      00000094H   SFRSYM    DATA     WORD      TIM4__DR
      000000D0H.5 SFRSYM    DATA     BIT       F0
      000000FEH   SFRSYM    DATA     BYTE      P2_OE
      000000D0H.1 SFRSYM    DATA     BIT       F1
      000000FFH   SFRSYM    DATA     BYTE      P3_OE
      00000080H.0 SFRSYM    DATA     BIT       GP00
      000000D8H.0 SFRSYM    DATA     BIT       UT2RI
      000000E9H   SFRSYM    DATA     BYTE      P4_OE
      00000090H.0 SFRSYM    DATA     BIT       GP10
      00000080H.1 SFRSYM    DATA     BIT       GP01
      000000B1H   SFRSYM    DATA     BYTE      CAN_CR0
      000000A8H.6 SFRSYM    DATA     BIT       RTCIE
      000000A0H.0 SFRSYM    DATA     BIT       GP20
      00000090H.1 SFRSYM    DATA     BIT       GP11
      00000080H.2 SFRSYM    DATA     BIT       GP02
      000000B2H   SFRSYM    DATA     BYTE      CAN_CR1
      000000D8H.1 SFRSYM    DATA     BIT       UT2TI
      000000B0H.0 SFRSYM    DATA     BIT       GP30
      000000A0H.1 SFRSYM    DATA     BIT       GP21
      00000090H.2 SFRSYM    DATA     BIT       GP12
      00000080H.3 SFRSYM    DATA     BIT       GP03
      000000B5H   SFRSYM    DATA     BYTE      CAN_CR2
      000000A8H.1 SFRSYM    DATA     BIT       TSDIE
LX51 LINKER/LOCATER V4.66.87.0                                                        06/22/2026  16:51:37  PAGE 111


      000000D0H   SFRSYM    DATA     BYTE      PSW
      000000B0H.1 SFRSYM    DATA     BIT       GP31
      000000A0H.2 SFRSYM    DATA     BIT       GP22
      00000090H.3 SFRSYM    DATA     BIT       GP13
      00000080H.4 SFRSYM    DATA     BIT       GP04
      000000A8H.3 SFRSYM    DATA     BIT       SPIIE
      00000088H.5 SFRSYM    DATA     BIT       TSDIF
      000000B8H.1 SFRSYM    DATA     BIT       GP41
      000000B0H.2 SFRSYM    DATA     BIT       GP32
      000000A0H.3 SFRSYM    DATA     BIT       GP23
      00000090H.4 SFRSYM    DATA     BIT       GP14
      00000080H.5 SFRSYM    DATA     BIT       GP05
      000000B8H.2 SFRSYM    DATA     BIT       GP42
      000000B0H.3 SFRSYM    DATA     BIT       GP33
      000000A0H.4 SFRSYM    DATA     BIT       GP24
      00000090H.5 SFRSYM    DATA     BIT       GP15
      00000080H.6 SFRSYM    DATA     BIT       GP06
      00000088H.0 SFRSYM    DATA     BIT       IT00
      00000007H   SYMBOL    DATA     BYTE      SetTJ_Value

      ---         MODULE    ---      ---       SMDU
      020003DFH   PUBLIC    XDATA    WORD      resultC
      020003DDH   PUBLIC    XDATA    WORD      resultB
      020003DBH   PUBLIC    XDATA    WORD      resultA
      01001E7AH   PUBLIC    CODE     ---       _MDUCal
      01002A14H   PUBLIC    CODE     ---       _LPFFunction
      000000B8H.3 SFRSYM    DATA     BIT       GP43
      000000B0H.4 SFRSYM    DATA     BIT       GP34
      000000A0H.5 SFRSYM    DATA     BIT       GP25
      00000090H.6 SFRSYM    DATA     BIT       GP16
      00000080H.7 SFRSYM    DATA     BIT       GP07
      00000088H.1 SFRSYM    DATA     BIT       IT01
      00000088H.3 SFRSYM    DATA     BIT       IT10
      000000B8H.4 SFRSYM    DATA     BIT       GP44
      000000B0H.5 SFRSYM    DATA     BIT       GP35
      000000A0H.6 SFRSYM    DATA     BIT       GP26
      00000090H.7 SFRSYM    DATA     BIT       GP17
      00000080H   SFRSYM    DATA     BYTE      P0
      00000088H.4 SFRSYM    DATA     BIT       IT11
      000000C9H   SFRSYM    DATA     BYTE      RST_SR
      000000D9H   SFRSYM    DATA     BYTE      EVT_FILT
      000000B8H.5 SFRSYM    DATA     BIT       GP45
      000000B0H.6 SFRSYM    DATA     BIT       GP36
      000000A0H.7 SFRSYM    DATA     BIT       GP27
      00000090H   SFRSYM    DATA     BYTE      P1
      000000BDH   SFRSYM    DATA     BYTE      LIN_SIZE
      000000B8H.6 SFRSYM    DATA     BIT       GP46
      000000B0H.7 SFRSYM    DATA     BIT       GP37
      000000A0H   SFRSYM    DATA     BYTE      P2
      000000B0H   SFRSYM    DATA     BYTE      P3
      000000B8H   SFRSYM    DATA     BYTE      P4
      000000CEH   SFRSYM    DATA     BYTE      CAN_ALC
      000000D0H.6 SFRSYM    DATA     BIT       AC
      000000A8H.7 SFRSYM    DATA     BIT       EA
      000000D5H   SFRSYM    DATA     BYTE      CMP_CR0
      000000D6H   SFRSYM    DATA     BYTE      CMP_CR1
      000000DAH   SFRSYM    DATA     BYTE      CMP_CR2
      000000DCH   SFRSYM    DATA     BYTE      CMP_CR3
      000000F8H.0 SFRSYM    DATA     BIT       OISUH
      000000E1H   SFRSYM    DATA     BYTE      CMP_CR4
      000000F8H.2 SFRSYM    DATA     BIT       OISVH
      000000F8H.4 SFRSYM    DATA     BIT       OISWH
      000000F8H.1 SFRSYM    DATA     BIT       OISUL
      000000DFH   SFRSYM    DATA     BYTE      CAN_REC
      000000A8H   SFRSYM    DATA     BYTE      IE
LX51 LINKER/LOCATER V4.66.87.0                                                        06/22/2026  16:51:37  PAGE 112


      000000F8H.3 SFRSYM    DATA     BIT       OISVL
      000000F9H   SFRSYM    DATA     BYTE      PI_CR
      000000F8H.5 SFRSYM    DATA     BIT       OISWL
      000000DEH   SFRSYM    DATA     BYTE      CAN_TEC
      000000B4H   SFRSYM    DATA     BYTE      CAN_IER
      000000B6H   SFRSYM    DATA     BYTE      CAN_IFR
      000000AAH   SFRSYM    DATA     WORD      TIM2__CNTR
      000000DDH   SFRSYM    DATA     BYTE      CAN_LIM
      000000A2H   SFRSYM    DATA     WORD      TIM3__CNTR
      000000F1H   SFRSYM    DATA     BYTE      OSC_CFG
      000000E2H   SFRSYM    DATA     BYTE      HALL_CR
      00000092H   SFRSYM    DATA     WORD      TIM4__CNTR
      00000098H.0 SFRSYM    DATA     BIT       RI
      00000098H.6 SFRSYM    DATA     BIT       UT_MOD0
      00000098H.7 SFRSYM    DATA     BIT       UT_MOD1
      000000D0H.7 SFRSYM    DATA     BIT       CY
      00000098H.1 SFRSYM    DATA     BIT       TI
      00000084H   SFRSYM    DATA     BYTE      FLA_KEY
      000000CFH   SFRSYM    DATA     BYTE      CAN_ESR
      00000098H   SFRSYM    DATA     BYTE      UT_CR
      00000099H   SFRSYM    DATA     BYTE      UT_DR
      000000D0H.2 SFRSYM    DATA     BIT       OV
      0000009AH   SFRSYM    DATA     WORD      UT_BAUD
      000000D8H.2 SFRSYM    DATA     BIT       UT2RB8
      000000D8H.3 SFRSYM    DATA     BIT       UT2TB8
      000000BBH   SFRSYM    DATA     BYTE      LIN_CSR
      000000D8H.5 SFRSYM    DATA     BIT       UT2SM2
      00000087H   SFRSYM    DATA     BYTE      PCON
      00000088H   SFRSYM    DATA     BYTE      TCON
      00000082H   SFRSYM    DATA     WORD      DPTR
      00000088H.2 SFRSYM    DATA     BIT       IF0
      000000D8H.4 SFRSYM    DATA     BIT       UT2REN
      000000AEH   SFRSYM    DATA     WORD      TIM2__ARR
      000000A1H   SFRSYM    DATA     BYTE      TIM2_CR0
      000000A6H   SFRSYM    DATA     WORD      TIM3__ARR
      0000009CH   SFRSYM    DATA     BYTE      TIM3_CR0
      000000A9H   SFRSYM    DATA     BYTE      TIM2_CR1
      00000096H   SFRSYM    DATA     WORD      TIM4__ARR
      0000009EH   SFRSYM    DATA     BYTE      TIM4_CR0
      0000009DH   SFRSYM    DATA     BYTE      TIM3_CR1
      000000C4H   SFRSYM    DATA     BYTE      CAN_FIR0
      000000F8H   SFRSYM    DATA     BYTE      DRV_OUT
      0000009FH   SFRSYM    DATA     BYTE      TIM4_CR1
      000000C5H   SFRSYM    DATA     BYTE      CAN_FIR1
      000000C6H   SFRSYM    DATA     BYTE      CAN_FIR2
      000000E0H   SFRSYM    DATA     BYTE      ACC
      000000DBH   SFRSYM    DATA     BYTE      LVSR
      000000C7H   SFRSYM    DATA     BYTE      CAN_FIR3
      000000A8H.4 SFRSYM    DATA     BIT       ES0
      00000085H   SFRSYM    DATA     BYTE      FLA_CR
      000000CAH   SFRSYM    DATA     BYTE      CAN_FMR0
      0000008AH   SFRSYM    DATA     BYTE      IP0
      000000CBH   SFRSYM    DATA     BYTE      CAN_FMR1
      0000008BH   SFRSYM    DATA     BYTE      IP1
      000000CCH   SFRSYM    DATA     BYTE      CAN_FMR2
      0000008CH   SFRSYM    DATA     BYTE      IP2
      000000CDH   SFRSYM    DATA     BYTE      CAN_FMR3
      000000B7H   SFRSYM    DATA     BYTE      CAN_BTR0
      00000098H.2 SFRSYM    DATA     BIT       RB8
      0000008DH   SFRSYM    DATA     BYTE      IP3
      000000C2H   SFRSYM    DATA     BYTE      CAN_BTR1
      000000A8H.0 SFRSYM    DATA     BIT       EX0
      000000C3H   SFRSYM    DATA     BYTE      CAN_BTR2
      00000098H.3 SFRSYM    DATA     BIT       TB8
      000000A8H.2 SFRSYM    DATA     BIT       EX1
LX51 LINKER/LOCATER V4.66.87.0                                                        06/22/2026  16:51:37  PAGE 113


      000000D0H.0 SFRSYM    DATA     BIT       P
      000000BCH   SFRSYM    DATA     BYTE      LIN_ID
      000000D8H   SFRSYM    DATA     BYTE      UT2_CR
      00000089H   SFRSYM    DATA     BYTE      UT2_DR
      00000098H.5 SFRSYM    DATA     BIT       SM2
      000000D0H.3 SFRSYM    DATA     BIT       RS0
      000000D0H.4 SFRSYM    DATA     BIT       RS1
      000000B3H   SFRSYM    DATA     BYTE      CAN_SR
      000000B9H   SFRSYM    DATA     BYTE      LIN_CR
      000000C1H   SFRSYM    DATA     BYTE      MDU_CR
      000000F8H.7 SFRSYM    DATA     BIT       MOE
      000000BEH   SFRSYM    DATA     WORD      LIN_BAUD
      000000A8H.5 SFRSYM    DATA     BIT       MCDIE
      00000088H.6 SFRSYM    DATA     BIT       MCDIF
      00000098H.4 SFRSYM    DATA     BIT       REN
      000000D7H   SFRSYM    DATA     BYTE      CMP_SR
      000000BAH   SFRSYM    DATA     BYTE      LIN_SR
      000000D8H.6 SFRSYM    DATA     BIT       UT2MOD0
      000000D8H.7 SFRSYM    DATA     BIT       UT2MOD1
      000000D1H   SFRSYM    DATA     BYTE      P1_IE
      000000D2H   SFRSYM    DATA     BYTE      P1_IF
      000000D3H   SFRSYM    DATA     BYTE      P4_IE
      000000D4H   SFRSYM    DATA     BYTE      P4_IF
      000000ACH   SFRSYM    DATA     WORD      TIM2__DR
      000000FCH   SFRSYM    DATA     BYTE      P0_OE
      000000A4H   SFRSYM    DATA     WORD      TIM3__DR
      000000FDH   SFRSYM    DATA     BYTE      P1_OE
      00000094H   SFRSYM    DATA     WORD      TIM4__DR
      000000D0H.5 SFRSYM    DATA     BIT       F0
      000000FEH   SFRSYM    DATA     BYTE      P2_OE
      000000D0H.1 SFRSYM    DATA     BIT       F1
      000000FFH   SFRSYM    DATA     BYTE      P3_OE
      00000080H.0 SFRSYM    DATA     BIT       GP00
      000000D8H.0 SFRSYM    DATA     BIT       UT2RI
      000000E9H   SFRSYM    DATA     BYTE      P4_OE
      00000090H.0 SFRSYM    DATA     BIT       GP10
      00000080H.1 SFRSYM    DATA     BIT       GP01
      000000B1H   SFRSYM    DATA     BYTE      CAN_CR0
      000000A8H.6 SFRSYM    DATA     BIT       RTCIE
      000000A0H.0 SFRSYM    DATA     BIT       GP20
      00000090H.1 SFRSYM    DATA     BIT       GP11
      00000080H.2 SFRSYM    DATA     BIT       GP02
      000000B2H   SFRSYM    DATA     BYTE      CAN_CR1
      000000D8H.1 SFRSYM    DATA     BIT       UT2TI
      000000B0H.0 SFRSYM    DATA     BIT       GP30
      000000A0H.1 SFRSYM    DATA     BIT       GP21
      00000090H.2 SFRSYM    DATA     BIT       GP12
      00000080H.3 SFRSYM    DATA     BIT       GP03
      000000B5H   SFRSYM    DATA     BYTE      CAN_CR2
      000000A8H.1 SFRSYM    DATA     BIT       TSDIE
      000000D0H   SFRSYM    DATA     BYTE      PSW
      000000B0H.1 SFRSYM    DATA     BIT       GP31
      000000A0H.2 SFRSYM    DATA     BIT       GP22
      00000090H.3 SFRSYM    DATA     BIT       GP13
      00000080H.4 SFRSYM    DATA     BIT       GP04
      000000A8H.3 SFRSYM    DATA     BIT       SPIIE
      00000088H.5 SFRSYM    DATA     BIT       TSDIF
      000000B8H.1 SFRSYM    DATA     BIT       GP41
      000000B0H.2 SFRSYM    DATA     BIT       GP32
      000000A0H.3 SFRSYM    DATA     BIT       GP23
      00000090H.4 SFRSYM    DATA     BIT       GP14
      00000080H.5 SFRSYM    DATA     BIT       GP05
      000000B8H.2 SFRSYM    DATA     BIT       GP42
      000000B0H.3 SFRSYM    DATA     BIT       GP33
      000000A0H.4 SFRSYM    DATA     BIT       GP24
LX51 LINKER/LOCATER V4.66.87.0                                                        06/22/2026  16:51:37  PAGE 114


      00000090H.5 SFRSYM    DATA     BIT       GP15
      00000080H.6 SFRSYM    DATA     BIT       GP06
      00000088H.0 SFRSYM    DATA     BIT       IT00

      01002BDAH   BLOCK     CODE     ---       LVL=0
      ---         BLOCKEND  ---      ---       LVL=0
      00000006H   SYMBOL    DATA     INT       Xn1

      01002A14H   BLOCK     CODE     ---       LVL=0
      0200033FH   SYMBOL    XDATA    INT       Xn1
      00000004H   SYMBOL    DATA     INT       Xn0
      00000003H   SYMBOL    DATA     CHAR      K
      01002A14H   LINE      CODE     ---       #36
      01002A1CH   LINE      CODE     ---       #37
      01002A1CH   LINE      CODE     ---       #38
      01002A26H   LINE      CODE     ---       #39
      01002A30H   LINE      CODE     ---       #40
      01002A33H   LINE      CODE     ---       #41
      01002A3BH   LINE      CODE     ---       #42
      01002A43H   LINE      CODE     ---       #43
      ---         BLOCKEND  ---      ---       LVL=0
      00000004H   SYMBOL    DATA     INT       Xn0
      00000003H   SYMBOL    DATA     CHAR      K
      00000006H   SYMBOL    DATA     INT       Xn1
      00000004H   SYMBOL    DATA     INT       Xn0
      00000006H   SYMBOL    DATA     WORD      Xn1
      00000004H   SYMBOL    DATA     WORD      Xn0
      00000002H   SYMBOL    DATA     WORD      Yn

      01001E7AH   BLOCK     CODE     ---       LVL=0
      00000007H   SYMBOL    DATA     ---       TData
      01001E7AH   BLOCK     CODE     NEAR LAB  LVL=1
      00000010H   SYMBOL    DATA     ---       result
      ---         BLOCKEND  ---      ---       LVL=1
      01001E7AH   LINE      CODE     ---       #99
      01001E7AH   LINE      CODE     ---       #100
      01001E7AH   LINE      CODE     ---       #106
      01001E83H   LINE      CODE     ---       #107
      01001E8EH   LINE      CODE     ---       #108
      01001E99H   LINE      CODE     ---       #135
      01001EA1H   LINE      CODE     ---       #137
      01001EA6H   LINE      CODE     ---       #138
      01001EA6H   LINE      CODE     ---       #139
      01001EAEH   LINE      CODE     ---       #140
      01001EB0H   LINE      CODE     ---       #142
      01001EB0H   LINE      CODE     ---       #143
      01001EC0H   LINE      CODE     ---       #144
      01001EC0H   LINE      CODE     ---       #146
      01001EC3H   LINE      CODE     ---       #148
      01001EC8H   LINE      CODE     ---       #150
      01001ED7H   LINE      CODE     ---       #151
      01001EE4H   LINE      CODE     ---       #153
      01001EE9H   LINE      CODE     ---       #154
      01001EE9H   LINE      CODE     ---       #155
      01001EF1H   LINE      CODE     ---       #156
      01001EF3H   LINE      CODE     ---       #158
      01001EF3H   LINE      CODE     ---       #159
      01001EFDH   LINE      CODE     ---       #160
      01001EFDH   LINE      CODE     ---       #162
      01001F00H   LINE      CODE     ---       #164
      01001F05H   LINE      CODE     ---       #166
      01001F0FH   LINE      CODE     ---       #167
      01001F12H   LINE      CODE     ---       #168
      ---         BLOCKEND  ---      ---       LVL=0

LX51 LINKER/LOCATER V4.66.87.0                                                        06/22/2026  16:51:37  PAGE 115


      ---         MODULE    ---      ---       LIN
      020003B9H   PUBLIC    XDATA    ---       ucaLinBuff
      020003B7H   PUBLIC    XDATA    WORD      err
      020003B6H   PUBLIC    XDATA    BYTE      Erase_Flage
      020003B4H   PUBLIC    XDATA    WORD      LinReceiveLen
      020003B3H   PUBLIC    XDATA    BYTE      LIN_ID1
      000000B8H.3 SFRSYM    DATA     BIT       GP43
      000000B0H.4 SFRSYM    DATA     BIT       GP34
      000000A0H.5 SFRSYM    DATA     BIT       GP25
      00000090H.6 SFRSYM    DATA     BIT       GP16
      00000080H.7 SFRSYM    DATA     BIT       GP07
      00000088H.1 SFRSYM    DATA     BIT       IT01
      00000088H.3 SFRSYM    DATA     BIT       IT10
      000000B8H.4 SFRSYM    DATA     BIT       GP44
      000000B0H.5 SFRSYM    DATA     BIT       GP35
      000000A0H.6 SFRSYM    DATA     BIT       GP26
      00000090H.7 SFRSYM    DATA     BIT       GP17
      00000080H   SFRSYM    DATA     BYTE      P0
      00000088H.4 SFRSYM    DATA     BIT       IT11
      000000C9H   SFRSYM    DATA     BYTE      RST_SR
      000000D9H   SFRSYM    DATA     BYTE      EVT_FILT
      000000B8H.5 SFRSYM    DATA     BIT       GP45
      000000B0H.6 SFRSYM    DATA     BIT       GP36
      000000A0H.7 SFRSYM    DATA     BIT       GP27
      00000090H   SFRSYM    DATA     BYTE      P1
      000000BDH   SFRSYM    DATA     BYTE      LIN_SIZE
      000000B8H.6 SFRSYM    DATA     BIT       GP46
      000000B0H.7 SFRSYM    DATA     BIT       GP37
      000000A0H   SFRSYM    DATA     BYTE      P2
      000000B0H   SFRSYM    DATA     BYTE      P3
      000000B8H   SFRSYM    DATA     BYTE      P4
      000000CEH   SFRSYM    DATA     BYTE      CAN_ALC
      000000D0H.6 SFRSYM    DATA     BIT       AC
      000000A8H.7 SFRSYM    DATA     BIT       EA
      000000D5H   SFRSYM    DATA     BYTE      CMP_CR0
      000000D6H   SFRSYM    DATA     BYTE      CMP_CR1
      000000DAH   SFRSYM    DATA     BYTE      CMP_CR2
      000000DCH   SFRSYM    DATA     BYTE      CMP_CR3
      000000F8H.0 SFRSYM    DATA     BIT       OISUH
      000000E1H   SFRSYM    DATA     BYTE      CMP_CR4
      000000F8H.2 SFRSYM    DATA     BIT       OISVH
      000000F8H.4 SFRSYM    DATA     BIT       OISWH
      000000F8H.1 SFRSYM    DATA     BIT       OISUL
      000000DFH   SFRSYM    DATA     BYTE      CAN_REC
      000000A8H   SFRSYM    DATA     BYTE      IE
      000000F8H.3 SFRSYM    DATA     BIT       OISVL
      000000F9H   SFRSYM    DATA     BYTE      PI_CR
      000000F8H.5 SFRSYM    DATA     BIT       OISWL
      000000DEH   SFRSYM    DATA     BYTE      CAN_TEC
      000000B4H   SFRSYM    DATA     BYTE      CAN_IER
      000000B6H   SFRSYM    DATA     BYTE      CAN_IFR
      000000AAH   SFRSYM    DATA     WORD      TIM2__CNTR
      000000DDH   SFRSYM    DATA     BYTE      CAN_LIM
      000000A2H   SFRSYM    DATA     WORD      TIM3__CNTR
      000000F1H   SFRSYM    DATA     BYTE      OSC_CFG
      000000E2H   SFRSYM    DATA     BYTE      HALL_CR
      00000092H   SFRSYM    DATA     WORD      TIM4__CNTR
      00000098H.0 SFRSYM    DATA     BIT       RI
      00000098H.6 SFRSYM    DATA     BIT       UT_MOD0
      00000098H.7 SFRSYM    DATA     BIT       UT_MOD1
      000000D0H.7 SFRSYM    DATA     BIT       CY
      00000098H.1 SFRSYM    DATA     BIT       TI
      00000084H   SFRSYM    DATA     BYTE      FLA_KEY
      000000CFH   SFRSYM    DATA     BYTE      CAN_ESR
      00000098H   SFRSYM    DATA     BYTE      UT_CR
LX51 LINKER/LOCATER V4.66.87.0                                                        06/22/2026  16:51:37  PAGE 116


      00000099H   SFRSYM    DATA     BYTE      UT_DR
      000000D0H.2 SFRSYM    DATA     BIT       OV
      0000009AH   SFRSYM    DATA     WORD      UT_BAUD
      000000D8H.2 SFRSYM    DATA     BIT       UT2RB8
      000000D8H.3 SFRSYM    DATA     BIT       UT2TB8
      000000BBH   SFRSYM    DATA     BYTE      LIN_CSR
      000000D8H.5 SFRSYM    DATA     BIT       UT2SM2
      00000087H   SFRSYM    DATA     BYTE      PCON
      00000088H   SFRSYM    DATA     BYTE      TCON
      00000082H   SFRSYM    DATA     WORD      DPTR
      00000088H.2 SFRSYM    DATA     BIT       IF0
      000000D8H.4 SFRSYM    DATA     BIT       UT2REN
      000000AEH   SFRSYM    DATA     WORD      TIM2__ARR
      000000A1H   SFRSYM    DATA     BYTE      TIM2_CR0
      000000A6H   SFRSYM    DATA     WORD      TIM3__ARR
      0000009CH   SFRSYM    DATA     BYTE      TIM3_CR0
      000000A9H   SFRSYM    DATA     BYTE      TIM2_CR1
      00000096H   SFRSYM    DATA     WORD      TIM4__ARR
      0000009EH   SFRSYM    DATA     BYTE      TIM4_CR0
      0000009DH   SFRSYM    DATA     BYTE      TIM3_CR1
      000000C4H   SFRSYM    DATA     BYTE      CAN_FIR0
      000000F8H   SFRSYM    DATA     BYTE      DRV_OUT
      0000009FH   SFRSYM    DATA     BYTE      TIM4_CR1
      000000C5H   SFRSYM    DATA     BYTE      CAN_FIR1
      000000C6H   SFRSYM    DATA     BYTE      CAN_FIR2
      000000E0H   SFRSYM    DATA     BYTE      ACC
      000000DBH   SFRSYM    DATA     BYTE      LVSR
      000000C7H   SFRSYM    DATA     BYTE      CAN_FIR3
      000000A8H.4 SFRSYM    DATA     BIT       ES0
      00000085H   SFRSYM    DATA     BYTE      FLA_CR
      000000CAH   SFRSYM    DATA     BYTE      CAN_FMR0
      0000008AH   SFRSYM    DATA     BYTE      IP0
      000000CBH   SFRSYM    DATA     BYTE      CAN_FMR1
      0000008BH   SFRSYM    DATA     BYTE      IP1
      000000CCH   SFRSYM    DATA     BYTE      CAN_FMR2
      0000008CH   SFRSYM    DATA     BYTE      IP2
      000000CDH   SFRSYM    DATA     BYTE      CAN_FMR3
      000000B7H   SFRSYM    DATA     BYTE      CAN_BTR0
      00000098H.2 SFRSYM    DATA     BIT       RB8
      0000008DH   SFRSYM    DATA     BYTE      IP3
      000000C2H   SFRSYM    DATA     BYTE      CAN_BTR1
      000000A8H.0 SFRSYM    DATA     BIT       EX0
      000000C3H   SFRSYM    DATA     BYTE      CAN_BTR2
      00000098H.3 SFRSYM    DATA     BIT       TB8
      000000A8H.2 SFRSYM    DATA     BIT       EX1
      000000D0H.0 SFRSYM    DATA     BIT       P
      000000BCH   SFRSYM    DATA     BYTE      LIN_ID
      000000D8H   SFRSYM    DATA     BYTE      UT2_CR
      00000089H   SFRSYM    DATA     BYTE      UT2_DR
      00000098H.5 SFRSYM    DATA     BIT       SM2
      000000D0H.3 SFRSYM    DATA     BIT       RS0
      000000D0H.4 SFRSYM    DATA     BIT       RS1
      000000B3H   SFRSYM    DATA     BYTE      CAN_SR
      000000B9H   SFRSYM    DATA     BYTE      LIN_CR
      000000C1H   SFRSYM    DATA     BYTE      MDU_CR
      000000F8H.7 SFRSYM    DATA     BIT       MOE
      000000BEH   SFRSYM    DATA     WORD      LIN_BAUD
      000000A8H.5 SFRSYM    DATA     BIT       MCDIE
      00000088H.6 SFRSYM    DATA     BIT       MCDIF
      00000098H.4 SFRSYM    DATA     BIT       REN
      000000D7H   SFRSYM    DATA     BYTE      CMP_SR
      000000BAH   SFRSYM    DATA     BYTE      LIN_SR
      000000D8H.6 SFRSYM    DATA     BIT       UT2MOD0
      000000D8H.7 SFRSYM    DATA     BIT       UT2MOD1
      000000D1H   SFRSYM    DATA     BYTE      P1_IE
LX51 LINKER/LOCATER V4.66.87.0                                                        06/22/2026  16:51:37  PAGE 117


      000000D2H   SFRSYM    DATA     BYTE      P1_IF
      000000D3H   SFRSYM    DATA     BYTE      P4_IE
      000000D4H   SFRSYM    DATA     BYTE      P4_IF
      000000ACH   SFRSYM    DATA     WORD      TIM2__DR
      000000FCH   SFRSYM    DATA     BYTE      P0_OE
      000000A4H   SFRSYM    DATA     WORD      TIM3__DR
      000000FDH   SFRSYM    DATA     BYTE      P1_OE
      00000094H   SFRSYM    DATA     WORD      TIM4__DR
      000000D0H.5 SFRSYM    DATA     BIT       F0
      000000FEH   SFRSYM    DATA     BYTE      P2_OE
      000000D0H.1 SFRSYM    DATA     BIT       F1
      000000FFH   SFRSYM    DATA     BYTE      P3_OE
      00000080H.0 SFRSYM    DATA     BIT       GP00
      000000D8H.0 SFRSYM    DATA     BIT       UT2RI
      000000E9H   SFRSYM    DATA     BYTE      P4_OE
      00000090H.0 SFRSYM    DATA     BIT       GP10
      00000080H.1 SFRSYM    DATA     BIT       GP01
      000000B1H   SFRSYM    DATA     BYTE      CAN_CR0
      000000A8H.6 SFRSYM    DATA     BIT       RTCIE
      000000A0H.0 SFRSYM    DATA     BIT       GP20
      00000090H.1 SFRSYM    DATA     BIT       GP11
      00000080H.2 SFRSYM    DATA     BIT       GP02
      000000B2H   SFRSYM    DATA     BYTE      CAN_CR1
      000000D8H.1 SFRSYM    DATA     BIT       UT2TI
      000000B0H.0 SFRSYM    DATA     BIT       GP30
      000000A0H.1 SFRSYM    DATA     BIT       GP21
      00000090H.2 SFRSYM    DATA     BIT       GP12
      00000080H.3 SFRSYM    DATA     BIT       GP03
      000000B5H   SFRSYM    DATA     BYTE      CAN_CR2
      000000A8H.1 SFRSYM    DATA     BIT       TSDIE
      000000D0H   SFRSYM    DATA     BYTE      PSW
      000000B0H.1 SFRSYM    DATA     BIT       GP31
      000000A0H.2 SFRSYM    DATA     BIT       GP22
      00000090H.3 SFRSYM    DATA     BIT       GP13
      00000080H.4 SFRSYM    DATA     BIT       GP04
      000000A8H.3 SFRSYM    DATA     BIT       SPIIE
      00000088H.5 SFRSYM    DATA     BIT       TSDIF
      000000B8H.1 SFRSYM    DATA     BIT       GP41
      000000B0H.2 SFRSYM    DATA     BIT       GP32
      000000A0H.3 SFRSYM    DATA     BIT       GP23
      00000090H.4 SFRSYM    DATA     BIT       GP14
      00000080H.5 SFRSYM    DATA     BIT       GP05
      000000B8H.2 SFRSYM    DATA     BIT       GP42
      000000B0H.3 SFRSYM    DATA     BIT       GP33
      000000A0H.4 SFRSYM    DATA     BIT       GP24
      00000090H.5 SFRSYM    DATA     BIT       GP15
      00000080H.6 SFRSYM    DATA     BIT       GP06
      00000088H.0 SFRSYM    DATA     BIT       IT00
      00000007H   SYMBOL    DATA     BYTE      i
      00000007H   SYMBOL    DATA     BYTE      PID

      ---         MODULE    ---      ---       FU68XX_6_FLASH
      020000AAH   PUBLIC    XDATA    ---       FlashTest
      020000A9H   PUBLIC    XDATA    BYTE      FlashWriteStatus
      000000B8H.3 SFRSYM    DATA     BIT       GP43
      000000B0H.4 SFRSYM    DATA     BIT       GP34
      000000A0H.5 SFRSYM    DATA     BIT       GP25
      00000090H.6 SFRSYM    DATA     BIT       GP16
      00000080H.7 SFRSYM    DATA     BIT       GP07
      00000088H.1 SFRSYM    DATA     BIT       IT01
      00000088H.3 SFRSYM    DATA     BIT       IT10
      000000B8H.4 SFRSYM    DATA     BIT       GP44
      000000B0H.5 SFRSYM    DATA     BIT       GP35
      000000A0H.6 SFRSYM    DATA     BIT       GP26
      00000090H.7 SFRSYM    DATA     BIT       GP17
LX51 LINKER/LOCATER V4.66.87.0                                                        06/22/2026  16:51:37  PAGE 118


      00000080H   SFRSYM    DATA     BYTE      P0
      00000088H.4 SFRSYM    DATA     BIT       IT11
      000000C9H   SFRSYM    DATA     BYTE      RST_SR
      000000D9H   SFRSYM    DATA     BYTE      EVT_FILT
      000000B8H.5 SFRSYM    DATA     BIT       GP45
      000000B0H.6 SFRSYM    DATA     BIT       GP36
      000000A0H.7 SFRSYM    DATA     BIT       GP27
      00000090H   SFRSYM    DATA     BYTE      P1
      000000BDH   SFRSYM    DATA     BYTE      LIN_SIZE
      000000B8H.6 SFRSYM    DATA     BIT       GP46
      000000B0H.7 SFRSYM    DATA     BIT       GP37
      000000A0H   SFRSYM    DATA     BYTE      P2
      000000B0H   SFRSYM    DATA     BYTE      P3
      000000B8H   SFRSYM    DATA     BYTE      P4
      000000CEH   SFRSYM    DATA     BYTE      CAN_ALC
      000000D0H.6 SFRSYM    DATA     BIT       AC
      000000A8H.7 SFRSYM    DATA     BIT       EA
      000000D5H   SFRSYM    DATA     BYTE      CMP_CR0
      000000D6H   SFRSYM    DATA     BYTE      CMP_CR1
      000000DAH   SFRSYM    DATA     BYTE      CMP_CR2
      000000DCH   SFRSYM    DATA     BYTE      CMP_CR3
      000000F8H.0 SFRSYM    DATA     BIT       OISUH
      000000E1H   SFRSYM    DATA     BYTE      CMP_CR4
      000000F8H.2 SFRSYM    DATA     BIT       OISVH
      000000F8H.4 SFRSYM    DATA     BIT       OISWH
      000000F8H.1 SFRSYM    DATA     BIT       OISUL
      000000DFH   SFRSYM    DATA     BYTE      CAN_REC
      000000A8H   SFRSYM    DATA     BYTE      IE
      000000F8H.3 SFRSYM    DATA     BIT       OISVL
      000000F9H   SFRSYM    DATA     BYTE      PI_CR
      000000F8H.5 SFRSYM    DATA     BIT       OISWL
      000000DEH   SFRSYM    DATA     BYTE      CAN_TEC
      000000B4H   SFRSYM    DATA     BYTE      CAN_IER
      000000B6H   SFRSYM    DATA     BYTE      CAN_IFR
      000000AAH   SFRSYM    DATA     WORD      TIM2__CNTR
      000000DDH   SFRSYM    DATA     BYTE      CAN_LIM
      000000A2H   SFRSYM    DATA     WORD      TIM3__CNTR
      000000F1H   SFRSYM    DATA     BYTE      OSC_CFG
      000000E2H   SFRSYM    DATA     BYTE      HALL_CR
      00000092H   SFRSYM    DATA     WORD      TIM4__CNTR
      00000098H.0 SFRSYM    DATA     BIT       RI
      00000098H.6 SFRSYM    DATA     BIT       UT_MOD0
      00000098H.7 SFRSYM    DATA     BIT       UT_MOD1
      000000D0H.7 SFRSYM    DATA     BIT       CY
      00000098H.1 SFRSYM    DATA     BIT       TI
      00000084H   SFRSYM    DATA     BYTE      FLA_KEY
      000000CFH   SFRSYM    DATA     BYTE      CAN_ESR
      00000098H   SFRSYM    DATA     BYTE      UT_CR
      00000099H   SFRSYM    DATA     BYTE      UT_DR
      000000D0H.2 SFRSYM    DATA     BIT       OV
      0000009AH   SFRSYM    DATA     WORD      UT_BAUD
      000000D8H.2 SFRSYM    DATA     BIT       UT2RB8
      000000D8H.3 SFRSYM    DATA     BIT       UT2TB8
      000000BBH   SFRSYM    DATA     BYTE      LIN_CSR
      000000D8H.5 SFRSYM    DATA     BIT       UT2SM2
      00000087H   SFRSYM    DATA     BYTE      PCON
      00000088H   SFRSYM    DATA     BYTE      TCON
      00000082H   SFRSYM    DATA     WORD      DPTR
      00000088H.2 SFRSYM    DATA     BIT       IF0
      000000D8H.4 SFRSYM    DATA     BIT       UT2REN
      000000AEH   SFRSYM    DATA     WORD      TIM2__ARR
      000000A1H   SFRSYM    DATA     BYTE      TIM2_CR0
      000000A6H   SFRSYM    DATA     WORD      TIM3__ARR
      0000009CH   SFRSYM    DATA     BYTE      TIM3_CR0
      000000A9H   SFRSYM    DATA     BYTE      TIM2_CR1
LX51 LINKER/LOCATER V4.66.87.0                                                        06/22/2026  16:51:37  PAGE 119


      00000096H   SFRSYM    DATA     WORD      TIM4__ARR
      0000009EH   SFRSYM    DATA     BYTE      TIM4_CR0
      0000009DH   SFRSYM    DATA     BYTE      TIM3_CR1
      000000C4H   SFRSYM    DATA     BYTE      CAN_FIR0
      000000F8H   SFRSYM    DATA     BYTE      DRV_OUT
      0000009FH   SFRSYM    DATA     BYTE      TIM4_CR1
      000000C5H   SFRSYM    DATA     BYTE      CAN_FIR1
      000000C6H   SFRSYM    DATA     BYTE      CAN_FIR2
      000000E0H   SFRSYM    DATA     BYTE      ACC
      000000DBH   SFRSYM    DATA     BYTE      LVSR
      000000C7H   SFRSYM    DATA     BYTE      CAN_FIR3
      000000A8H.4 SFRSYM    DATA     BIT       ES0
      00000085H   SFRSYM    DATA     BYTE      FLA_CR
      000000CAH   SFRSYM    DATA     BYTE      CAN_FMR0
      0000008AH   SFRSYM    DATA     BYTE      IP0
      000000CBH   SFRSYM    DATA     BYTE      CAN_FMR1
      0000008BH   SFRSYM    DATA     BYTE      IP1
      000000CCH   SFRSYM    DATA     BYTE      CAN_FMR2
      0000008CH   SFRSYM    DATA     BYTE      IP2
      000000CDH   SFRSYM    DATA     BYTE      CAN_FMR3
      000000B7H   SFRSYM    DATA     BYTE      CAN_BTR0
      00000098H.2 SFRSYM    DATA     BIT       RB8
      0000008DH   SFRSYM    DATA     BYTE      IP3
      000000C2H   SFRSYM    DATA     BYTE      CAN_BTR1
      000000A8H.0 SFRSYM    DATA     BIT       EX0
      000000C3H   SFRSYM    DATA     BYTE      CAN_BTR2
      00000098H.3 SFRSYM    DATA     BIT       TB8
      000000A8H.2 SFRSYM    DATA     BIT       EX1
      000000D0H.0 SFRSYM    DATA     BIT       P
      000000BCH   SFRSYM    DATA     BYTE      LIN_ID
      000000D8H   SFRSYM    DATA     BYTE      UT2_CR
      00000089H   SFRSYM    DATA     BYTE      UT2_DR
      00000098H.5 SFRSYM    DATA     BIT       SM2
      000000D0H.3 SFRSYM    DATA     BIT       RS0
      000000D0H.4 SFRSYM    DATA     BIT       RS1
      000000B3H   SFRSYM    DATA     BYTE      CAN_SR
      000000B9H   SFRSYM    DATA     BYTE      LIN_CR
      000000C1H   SFRSYM    DATA     BYTE      MDU_CR
      000000F8H.7 SFRSYM    DATA     BIT       MOE
      000000BEH   SFRSYM    DATA     WORD      LIN_BAUD
      000000A8H.5 SFRSYM    DATA     BIT       MCDIE
      00000088H.6 SFRSYM    DATA     BIT       MCDIF
      00000098H.4 SFRSYM    DATA     BIT       REN
      000000D7H   SFRSYM    DATA     BYTE      CMP_SR
      000000BAH   SFRSYM    DATA     BYTE      LIN_SR
      000000D8H.6 SFRSYM    DATA     BIT       UT2MOD0
      000000D8H.7 SFRSYM    DATA     BIT       UT2MOD1
      000000D1H   SFRSYM    DATA     BYTE      P1_IE
      000000D2H   SFRSYM    DATA     BYTE      P1_IF
      000000D3H   SFRSYM    DATA     BYTE      P4_IE
      000000D4H   SFRSYM    DATA     BYTE      P4_IF
      000000ACH   SFRSYM    DATA     WORD      TIM2__DR
      000000FCH   SFRSYM    DATA     BYTE      P0_OE
      000000A4H   SFRSYM    DATA     WORD      TIM3__DR
      000000FDH   SFRSYM    DATA     BYTE      P1_OE
      00000094H   SFRSYM    DATA     WORD      TIM4__DR
      000000D0H.5 SFRSYM    DATA     BIT       F0
      000000FEH   SFRSYM    DATA     BYTE      P2_OE
      000000D0H.1 SFRSYM    DATA     BIT       F1
      000000FFH   SFRSYM    DATA     BYTE      P3_OE
      00000080H.0 SFRSYM    DATA     BIT       GP00
      000000D8H.0 SFRSYM    DATA     BIT       UT2RI
      000000E9H   SFRSYM    DATA     BYTE      P4_OE
      00000090H.0 SFRSYM    DATA     BIT       GP10
      00000080H.1 SFRSYM    DATA     BIT       GP01
LX51 LINKER/LOCATER V4.66.87.0                                                        06/22/2026  16:51:37  PAGE 120


      000000B1H   SFRSYM    DATA     BYTE      CAN_CR0
      000000A8H.6 SFRSYM    DATA     BIT       RTCIE
      000000A0H.0 SFRSYM    DATA     BIT       GP20
      00000090H.1 SFRSYM    DATA     BIT       GP11
      00000080H.2 SFRSYM    DATA     BIT       GP02
      000000B2H   SFRSYM    DATA     BYTE      CAN_CR1
      000000D8H.1 SFRSYM    DATA     BIT       UT2TI
      000000B0H.0 SFRSYM    DATA     BIT       GP30
      000000A0H.1 SFRSYM    DATA     BIT       GP21
      00000090H.2 SFRSYM    DATA     BIT       GP12
      00000080H.3 SFRSYM    DATA     BIT       GP03
      000000B5H   SFRSYM    DATA     BYTE      CAN_CR2
      000000A8H.1 SFRSYM    DATA     BIT       TSDIE
      000000D0H   SFRSYM    DATA     BYTE      PSW
      000000B0H.1 SFRSYM    DATA     BIT       GP31
      000000A0H.2 SFRSYM    DATA     BIT       GP22
      00000090H.3 SFRSYM    DATA     BIT       GP13
      00000080H.4 SFRSYM    DATA     BIT       GP04
      000000A8H.3 SFRSYM    DATA     BIT       SPIIE
      00000088H.5 SFRSYM    DATA     BIT       TSDIF
      000000B8H.1 SFRSYM    DATA     BIT       GP41
      000000B0H.2 SFRSYM    DATA     BIT       GP32
      000000A0H.3 SFRSYM    DATA     BIT       GP23
      00000090H.4 SFRSYM    DATA     BIT       GP14
      00000080H.5 SFRSYM    DATA     BIT       GP05
      000000B8H.2 SFRSYM    DATA     BIT       GP42
      000000B0H.3 SFRSYM    DATA     BIT       GP33
      000000A0H.4 SFRSYM    DATA     BIT       GP24
      00000090H.5 SFRSYM    DATA     BIT       GP15
      00000080H.6 SFRSYM    DATA     BIT       GP06
      00000088H.0 SFRSYM    DATA     BIT       IT00
      00000007H   SYMBOL    DATA     BYTE      eCmd
      00000003H   SYMBOL    DATA     BYTE      ucDat
      00000007H   SYMBOL    DATA     BYTE      eStatu
      00000007H   SYMBOL    DATA     BYTE      eStatu
      00000006H   SYMBOL    DATA     WORD      FlashAddress
      00000003H   SYMBOL    DATA     BYTE      FlashData
      00000007H   SYMBOL    DATA     BYTE      CRCL
      00000006H   SYMBOL    DATA     BYTE      CRCH
      00000006H   SYMBOL    DATA     WORD      FlashAddress
      00000001H   SYMBOL    DATA     BYTE      Write_Length
      00000004H   SYMBOL    DATA     WORD      TempFlashAddress
      00000006H   SYMBOL    DATA     WORD      FlashAddress
      00000005H   SYMBOL    DATA     BYTE      tempFlashData
      00000006H   SYMBOL    DATA     WORD      FlashAddress
      00000004H   SYMBOL    DATA     WORD      tempofFlashData
      00000004H   SYMBOL    DATA     WORD      Array_Loca

      ---         MODULE    ---      ---       ?C_STARTUP
      01000000H   PUBLIC    CODE     ---       ?C_STARTUP
      000000E0H   SYMBOL    DATA     ---       ACC
      000000F0H   SYMBOL    DATA     ---       B
      00000083H   SYMBOL    DATA     ---       DPH
      00000082H   SYMBOL    DATA     ---       DPL
      00000000H   SYMBOL    NUMBER   ---       IBPSTACK
      00000100H   SYMBOL    NUMBER   ---       IBPSTACKTOP
      00000100H   SYMBOL    NUMBER   ---       IDATALEN
      01001DE3H   SYMBOL    CODE     ---       IDATALOOP
      00000081H   SYMBOL    DATA     ---       SP
      01001DE0H   SYMBOL    CODE     ---       STARTUP1
      00000000H   SYMBOL    NUMBER   ---       XBPSTACK
      00001000H   SYMBOL    NUMBER   ---       XBPSTACKTOP
      00001000H   SYMBOL    NUMBER   ---       XDATALEN
      01001DEEH   SYMBOL    CODE     ---       XDATALOOP
      00000000H   SYMBOL    NUMBER   ---       XDATASTART
LX51 LINKER/LOCATER V4.66.87.0                                                        06/22/2026  16:51:37  PAGE 121


      01000000H   LINE      CODE     ---       #31
      01001DE0H   LINE      CODE     ---       #37
      01001DE2H   LINE      CODE     ---       #38
      01001DE3H   LINE      CODE     ---       #39
      01001DE4H   LINE      CODE     ---       #40
      01001DE6H   LINE      CODE     ---       #44
      01001DE9H   LINE      CODE     ---       #45
      01001DEBH   LINE      CODE     ---       #49
      01001DEDH   LINE      CODE     ---       #51
      01001DEEH   LINE      CODE     ---       #52
      01001DEFH   LINE      CODE     ---       #53
      01001DF0H   LINE      CODE     ---       #54
      01001DF2H   LINE      CODE     ---       #55
      01001DF4H   LINE      CODE     ---       #68
      01001DF7H   LINE      CODE     ---       #69

      ---         MODULE    ---      ---       ONCHIPFLASH
      000000B8H.3 SFRSYM    DATA     BIT       GP43
      000000B0H.4 SFRSYM    DATA     BIT       GP34
      000000A0H.5 SFRSYM    DATA     BIT       GP25
      00000090H.6 SFRSYM    DATA     BIT       GP16
      00000080H.7 SFRSYM    DATA     BIT       GP07
      00000088H.1 SFRSYM    DATA     BIT       IT01
      00000088H.3 SFRSYM    DATA     BIT       IT10
      000000B8H.4 SFRSYM    DATA     BIT       GP44
      000000B0H.5 SFRSYM    DATA     BIT       GP35
      000000A0H.6 SFRSYM    DATA     BIT       GP26
      00000090H.7 SFRSYM    DATA     BIT       GP17
      00000080H   SFRSYM    DATA     BYTE      P0
      00000088H.4 SFRSYM    DATA     BIT       IT11
      000000C9H   SFRSYM    DATA     BYTE      RST_SR
      000000D9H   SFRSYM    DATA     BYTE      EVT_FILT
      000000B8H.5 SFRSYM    DATA     BIT       GP45
      000000B0H.6 SFRSYM    DATA     BIT       GP36
      000000A0H.7 SFRSYM    DATA     BIT       GP27
      00000090H   SFRSYM    DATA     BYTE      P1
      000000BDH   SFRSYM    DATA     BYTE      LIN_SIZE
      000000B8H.6 SFRSYM    DATA     BIT       GP46
      000000B0H.7 SFRSYM    DATA     BIT       GP37
      000000A0H   SFRSYM    DATA     BYTE      P2
      000000B0H   SFRSYM    DATA     BYTE      P3
      000000B8H   SFRSYM    DATA     BYTE      P4
      000000CEH   SFRSYM    DATA     BYTE      CAN_ALC
      000000D0H.6 SFRSYM    DATA     BIT       AC
      000000A8H.7 SFRSYM    DATA     BIT       EA
      000000D5H   SFRSYM    DATA     BYTE      CMP_CR0
      000000D6H   SFRSYM    DATA     BYTE      CMP_CR1
      000000DAH   SFRSYM    DATA     BYTE      CMP_CR2
      000000DCH   SFRSYM    DATA     BYTE      CMP_CR3
      000000F8H.0 SFRSYM    DATA     BIT       OISUH
      000000E1H   SFRSYM    DATA     BYTE      CMP_CR4
      000000F8H.2 SFRSYM    DATA     BIT       OISVH
      000000F8H.4 SFRSYM    DATA     BIT       OISWH
      000000F8H.1 SFRSYM    DATA     BIT       OISUL
      000000DFH   SFRSYM    DATA     BYTE      CAN_REC
      000000A8H   SFRSYM    DATA     BYTE      IE
      000000F8H.3 SFRSYM    DATA     BIT       OISVL
      000000F9H   SFRSYM    DATA     BYTE      PI_CR
      000000F8H.5 SFRSYM    DATA     BIT       OISWL
      000000DEH   SFRSYM    DATA     BYTE      CAN_TEC
      000000B4H   SFRSYM    DATA     BYTE      CAN_IER
      000000B6H   SFRSYM    DATA     BYTE      CAN_IFR
      000000AAH   SFRSYM    DATA     WORD      TIM2__CNTR
      000000DDH   SFRSYM    DATA     BYTE      CAN_LIM
      000000A2H   SFRSYM    DATA     WORD      TIM3__CNTR
LX51 LINKER/LOCATER V4.66.87.0                                                        06/22/2026  16:51:37  PAGE 122


      000000F1H   SFRSYM    DATA     BYTE      OSC_CFG
      000000E2H   SFRSYM    DATA     BYTE      HALL_CR
      00000092H   SFRSYM    DATA     WORD      TIM4__CNTR
      00000098H.0 SFRSYM    DATA     BIT       RI
      00000098H.6 SFRSYM    DATA     BIT       UT_MOD0
      00000098H.7 SFRSYM    DATA     BIT       UT_MOD1
      000000D0H.7 SFRSYM    DATA     BIT       CY
      00000098H.1 SFRSYM    DATA     BIT       TI
      00000084H   SFRSYM    DATA     BYTE      FLA_KEY
      000000CFH   SFRSYM    DATA     BYTE      CAN_ESR
      00000098H   SFRSYM    DATA     BYTE      UT_CR
      00000099H   SFRSYM    DATA     BYTE      UT_DR
      000000D0H.2 SFRSYM    DATA     BIT       OV
      0000009AH   SFRSYM    DATA     WORD      UT_BAUD
      000000D8H.2 SFRSYM    DATA     BIT       UT2RB8
      000000D8H.3 SFRSYM    DATA     BIT       UT2TB8
      000000BBH   SFRSYM    DATA     BYTE      LIN_CSR
      000000D8H.5 SFRSYM    DATA     BIT       UT2SM2
      00000087H   SFRSYM    DATA     BYTE      PCON
      00000088H   SFRSYM    DATA     BYTE      TCON
      00000082H   SFRSYM    DATA     WORD      DPTR
      00000088H.2 SFRSYM    DATA     BIT       IF0
      000000D8H.4 SFRSYM    DATA     BIT       UT2REN
      000000AEH   SFRSYM    DATA     WORD      TIM2__ARR
      000000A1H   SFRSYM    DATA     BYTE      TIM2_CR0
      000000A6H   SFRSYM    DATA     WORD      TIM3__ARR
      0000009CH   SFRSYM    DATA     BYTE      TIM3_CR0
      000000A9H   SFRSYM    DATA     BYTE      TIM2_CR1
      00000096H   SFRSYM    DATA     WORD      TIM4__ARR
      0000009EH   SFRSYM    DATA     BYTE      TIM4_CR0
      0000009DH   SFRSYM    DATA     BYTE      TIM3_CR1
      000000C4H   SFRSYM    DATA     BYTE      CAN_FIR0
      000000F8H   SFRSYM    DATA     BYTE      DRV_OUT
      0000009FH   SFRSYM    DATA     BYTE      TIM4_CR1
      000000C5H   SFRSYM    DATA     BYTE      CAN_FIR1
      000000C6H   SFRSYM    DATA     BYTE      CAN_FIR2
      000000E0H   SFRSYM    DATA     BYTE      ACC
      000000DBH   SFRSYM    DATA     BYTE      LVSR
      000000C7H   SFRSYM    DATA     BYTE      CAN_FIR3
      000000A8H.4 SFRSYM    DATA     BIT       ES0
      00000085H   SFRSYM    DATA     BYTE      FLA_CR
      000000CAH   SFRSYM    DATA     BYTE      CAN_FMR0
      0000008AH   SFRSYM    DATA     BYTE      IP0
      000000CBH   SFRSYM    DATA     BYTE      CAN_FMR1
      0000008BH   SFRSYM    DATA     BYTE      IP1
      000000CCH   SFRSYM    DATA     BYTE      CAN_FMR2
      0000008CH   SFRSYM    DATA     BYTE      IP2
      000000CDH   SFRSYM    DATA     BYTE      CAN_FMR3
      000000B7H   SFRSYM    DATA     BYTE      CAN_BTR0
      00000098H.2 SFRSYM    DATA     BIT       RB8
      0000008DH   SFRSYM    DATA     BYTE      IP3
      000000C2H   SFRSYM    DATA     BYTE      CAN_BTR1
      000000A8H.0 SFRSYM    DATA     BIT       EX0
      000000C3H   SFRSYM    DATA     BYTE      CAN_BTR2
      00000098H.3 SFRSYM    DATA     BIT       TB8
      000000A8H.2 SFRSYM    DATA     BIT       EX1
      000000D0H.0 SFRSYM    DATA     BIT       P
      000000BCH   SFRSYM    DATA     BYTE      LIN_ID
      000000D8H   SFRSYM    DATA     BYTE      UT2_CR
      00000089H   SFRSYM    DATA     BYTE      UT2_DR
      00000098H.5 SFRSYM    DATA     BIT       SM2
      000000D0H.3 SFRSYM    DATA     BIT       RS0
      000000D0H.4 SFRSYM    DATA     BIT       RS1
      000000B3H   SFRSYM    DATA     BYTE      CAN_SR
      000000B9H   SFRSYM    DATA     BYTE      LIN_CR
LX51 LINKER/LOCATER V4.66.87.0                                                        06/22/2026  16:51:37  PAGE 123


      000000C1H   SFRSYM    DATA     BYTE      MDU_CR
      000000F8H.7 SFRSYM    DATA     BIT       MOE
      000000BEH   SFRSYM    DATA     WORD      LIN_BAUD
      000000A8H.5 SFRSYM    DATA     BIT       MCDIE
      00000088H.6 SFRSYM    DATA     BIT       MCDIF
      00000098H.4 SFRSYM    DATA     BIT       REN
      000000D7H   SFRSYM    DATA     BYTE      CMP_SR
      000000BAH   SFRSYM    DATA     BYTE      LIN_SR
      000000D8H.6 SFRSYM    DATA     BIT       UT2MOD0
      000000D8H.7 SFRSYM    DATA     BIT       UT2MOD1
      000000D1H   SFRSYM    DATA     BYTE      P1_IE
      000000D2H   SFRSYM    DATA     BYTE      P1_IF
      000000D3H   SFRSYM    DATA     BYTE      P4_IE
      000000D4H   SFRSYM    DATA     BYTE      P4_IF
      000000ACH   SFRSYM    DATA     WORD      TIM2__DR
      000000FCH   SFRSYM    DATA     BYTE      P0_OE
      000000A4H   SFRSYM    DATA     WORD      TIM3__DR
      000000FDH   SFRSYM    DATA     BYTE      P1_OE
      00000094H   SFRSYM    DATA     WORD      TIM4__DR
      000000D0H.5 SFRSYM    DATA     BIT       F0
      000000FEH   SFRSYM    DATA     BYTE      P2_OE
      000000D0H.1 SFRSYM    DATA     BIT       F1
      000000FFH   SFRSYM    DATA     BYTE      P3_OE
      00000080H.0 SFRSYM    DATA     BIT       GP00
      000000D8H.0 SFRSYM    DATA     BIT       UT2RI
      000000E9H   SFRSYM    DATA     BYTE      P4_OE
      00000090H.0 SFRSYM    DATA     BIT       GP10
      00000080H.1 SFRSYM    DATA     BIT       GP01
      000000B1H   SFRSYM    DATA     BYTE      CAN_CR0
      000000A8H.6 SFRSYM    DATA     BIT       RTCIE
      000000A0H.0 SFRSYM    DATA     BIT       GP20
      00000090H.1 SFRSYM    DATA     BIT       GP11
      00000080H.2 SFRSYM    DATA     BIT       GP02
      000000B2H   SFRSYM    DATA     BYTE      CAN_CR1
      000000D8H.1 SFRSYM    DATA     BIT       UT2TI
      000000B0H.0 SFRSYM    DATA     BIT       GP30
      000000A0H.1 SFRSYM    DATA     BIT       GP21
      00000090H.2 SFRSYM    DATA     BIT       GP12
      00000080H.3 SFRSYM    DATA     BIT       GP03
      000000B5H   SFRSYM    DATA     BYTE      CAN_CR2
      000000A8H.1 SFRSYM    DATA     BIT       TSDIE
      000000D0H   SFRSYM    DATA     BYTE      PSW
      000000B0H.1 SFRSYM    DATA     BIT       GP31
      000000A0H.2 SFRSYM    DATA     BIT       GP22
      00000090H.3 SFRSYM    DATA     BIT       GP13
      00000080H.4 SFRSYM    DATA     BIT       GP04
      000000A8H.3 SFRSYM    DATA     BIT       SPIIE
      00000088H.5 SFRSYM    DATA     BIT       TSDIF
      000000B8H.1 SFRSYM    DATA     BIT       GP41
      000000B0H.2 SFRSYM    DATA     BIT       GP32
      000000A0H.3 SFRSYM    DATA     BIT       GP23
      00000090H.4 SFRSYM    DATA     BIT       GP14
      00000080H.5 SFRSYM    DATA     BIT       GP05
      000000B8H.2 SFRSYM    DATA     BIT       GP42
      000000B0H.3 SFRSYM    DATA     BIT       GP33
      000000A0H.4 SFRSYM    DATA     BIT       GP24
      00000090H.5 SFRSYM    DATA     BIT       GP15
      00000080H.6 SFRSYM    DATA     BIT       GP06
      00000088H.0 SFRSYM    DATA     BIT       IT00
      00000082H   SYMBOL    DATA     ---       FlashAddress
      00000082H   SYMBOL    DATA     ---       FlashAddress
      00000005H   SYMBOL    DATA     BYTE      FlashData
      00000006H   SYMBOL    DATA     ---       BlockStartAddr
      00000004H   SYMBOL    DATA     WORD      NewData2Flash
      00000004H   SYMBOL    DATA     BYTE      i
LX51 LINKER/LOCATER V4.66.87.0                                                        06/22/2026  16:51:37  PAGE 124


      00000006H   SYMBOL    DATA     ---       BlockStartAddr
      00000005H   SYMBOL    DATA     BYTE      i
      00000006H   SYMBOL    DATA     WORD      tempofFlashData

      ---         MODULE    ---      ---       CAN
      020003B1H   PUBLIC    XDATA    WORD      CAN_u16StateTimCnt
      020003B0H   PUBLIC    XDATA    BYTE      CAN_u8RecoverCnt
      020003AFH   PUBLIC    XDATA    BYTE      CAN_u8SoftErrorType
      020003A0H   PUBLIC    XDATA    ---       CAN_strRxPduTemp
      0200039FH   PUBLIC    XDATA    BYTE      CAN_u8DrvState
      01002350H   PUBLIC    CODE     ---       CAN_vidStateMachine
      01002C8DH   PUBLIC    CODE     ---       _CAN_vidSetCanError
      0200033FH   PUBLIC    XDATA    BYTE      ?_CAN_vidSendMsg?BYTE
      01001996H   PUBLIC    CODE     ---       _CAN_vidSendMsg
      01000913H   PUBLIC    CODE     ---       CAN_vidReadFrame
      010016B7H   PUBLIC    CODE     ---       CAN_vidInit
      000000B8H.3 SFRSYM    DATA     BIT       GP43
      000000B0H.4 SFRSYM    DATA     BIT       GP34
      000000A0H.5 SFRSYM    DATA     BIT       GP25
      00000090H.6 SFRSYM    DATA     BIT       GP16
      00000080H.7 SFRSYM    DATA     BIT       GP07
      00000088H.1 SFRSYM    DATA     BIT       IT01
      00000088H.3 SFRSYM    DATA     BIT       IT10
      000000B8H.4 SFRSYM    DATA     BIT       GP44
      000000B0H.5 SFRSYM    DATA     BIT       GP35
      000000A0H.6 SFRSYM    DATA     BIT       GP26
      00000090H.7 SFRSYM    DATA     BIT       GP17
      00000080H   SFRSYM    DATA     BYTE      P0
      00000088H.4 SFRSYM    DATA     BIT       IT11
      000000C9H   SFRSYM    DATA     BYTE      RST_SR
      000000D9H   SFRSYM    DATA     BYTE      EVT_FILT
      000000B8H.5 SFRSYM    DATA     BIT       GP45
      000000B0H.6 SFRSYM    DATA     BIT       GP36
      000000A0H.7 SFRSYM    DATA     BIT       GP27
      00000090H   SFRSYM    DATA     BYTE      P1
      000000BDH   SFRSYM    DATA     BYTE      LIN_SIZE
      000000B8H.6 SFRSYM    DATA     BIT       GP46
      000000B0H.7 SFRSYM    DATA     BIT       GP37
      000000A0H   SFRSYM    DATA     BYTE      P2
      000000B0H   SFRSYM    DATA     BYTE      P3
      000000B8H   SFRSYM    DATA     BYTE      P4
      000000CEH   SFRSYM    DATA     BYTE      CAN_ALC
      000000D0H.6 SFRSYM    DATA     BIT       AC
      000000A8H.7 SFRSYM    DATA     BIT       EA
      000000D5H   SFRSYM    DATA     BYTE      CMP_CR0
      000000D6H   SFRSYM    DATA     BYTE      CMP_CR1
      000000DAH   SFRSYM    DATA     BYTE      CMP_CR2
      000000DCH   SFRSYM    DATA     BYTE      CMP_CR3
      000000F8H.0 SFRSYM    DATA     BIT       OISUH
      000000E1H   SFRSYM    DATA     BYTE      CMP_CR4
      000000F8H.2 SFRSYM    DATA     BIT       OISVH
      000000F8H.4 SFRSYM    DATA     BIT       OISWH
      000000F8H.1 SFRSYM    DATA     BIT       OISUL
      000000DFH   SFRSYM    DATA     BYTE      CAN_REC
      000000A8H   SFRSYM    DATA     BYTE      IE
      000000F8H.3 SFRSYM    DATA     BIT       OISVL
      000000F9H   SFRSYM    DATA     BYTE      PI_CR
      000000F8H.5 SFRSYM    DATA     BIT       OISWL
      000000DEH   SFRSYM    DATA     BYTE      CAN_TEC
      000000B4H   SFRSYM    DATA     BYTE      CAN_IER
      000000B6H   SFRSYM    DATA     BYTE      CAN_IFR
      000000AAH   SFRSYM    DATA     WORD      TIM2__CNTR
      000000DDH   SFRSYM    DATA     BYTE      CAN_LIM
      000000A2H   SFRSYM    DATA     WORD      TIM3__CNTR
      000000F1H   SFRSYM    DATA     BYTE      OSC_CFG
LX51 LINKER/LOCATER V4.66.87.0                                                        06/22/2026  16:51:37  PAGE 125


      000000E2H   SFRSYM    DATA     BYTE      HALL_CR
      00000092H   SFRSYM    DATA     WORD      TIM4__CNTR
      00000098H.0 SFRSYM    DATA     BIT       RI
      00000098H.6 SFRSYM    DATA     BIT       UT_MOD0
      00000098H.7 SFRSYM    DATA     BIT       UT_MOD1
      000000D0H.7 SFRSYM    DATA     BIT       CY
      00000098H.1 SFRSYM    DATA     BIT       TI
      00000084H   SFRSYM    DATA     BYTE      FLA_KEY
      000000CFH   SFRSYM    DATA     BYTE      CAN_ESR
      00000098H   SFRSYM    DATA     BYTE      UT_CR
      00000099H   SFRSYM    DATA     BYTE      UT_DR
      000000D0H.2 SFRSYM    DATA     BIT       OV
      0000009AH   SFRSYM    DATA     WORD      UT_BAUD
      000000D8H.2 SFRSYM    DATA     BIT       UT2RB8
      000000D8H.3 SFRSYM    DATA     BIT       UT2TB8
      000000BBH   SFRSYM    DATA     BYTE      LIN_CSR
      000000D8H.5 SFRSYM    DATA     BIT       UT2SM2
      00000087H   SFRSYM    DATA     BYTE      PCON
      00000088H   SFRSYM    DATA     BYTE      TCON
      00000082H   SFRSYM    DATA     WORD      DPTR
      00000088H.2 SFRSYM    DATA     BIT       IF0
      000000D8H.4 SFRSYM    DATA     BIT       UT2REN
      000000AEH   SFRSYM    DATA     WORD      TIM2__ARR
      000000A1H   SFRSYM    DATA     BYTE      TIM2_CR0
      000000A6H   SFRSYM    DATA     WORD      TIM3__ARR
      0000009CH   SFRSYM    DATA     BYTE      TIM3_CR0
      000000A9H   SFRSYM    DATA     BYTE      TIM2_CR1
      00000096H   SFRSYM    DATA     WORD      TIM4__ARR
      0000009EH   SFRSYM    DATA     BYTE      TIM4_CR0
      0000009DH   SFRSYM    DATA     BYTE      TIM3_CR1
      000000C4H   SFRSYM    DATA     BYTE      CAN_FIR0
      000000F8H   SFRSYM    DATA     BYTE      DRV_OUT
      0000009FH   SFRSYM    DATA     BYTE      TIM4_CR1
      000000C5H   SFRSYM    DATA     BYTE      CAN_FIR1
      000000C6H   SFRSYM    DATA     BYTE      CAN_FIR2
      000000E0H   SFRSYM    DATA     BYTE      ACC
      000000DBH   SFRSYM    DATA     BYTE      LVSR
      000000C7H   SFRSYM    DATA     BYTE      CAN_FIR3
      000000A8H.4 SFRSYM    DATA     BIT       ES0
      00000085H   SFRSYM    DATA     BYTE      FLA_CR
      000000CAH   SFRSYM    DATA     BYTE      CAN_FMR0
      0000008AH   SFRSYM    DATA     BYTE      IP0
      000000CBH   SFRSYM    DATA     BYTE      CAN_FMR1
      0000008BH   SFRSYM    DATA     BYTE      IP1
      000000CCH   SFRSYM    DATA     BYTE      CAN_FMR2
      0000008CH   SFRSYM    DATA     BYTE      IP2
      000000CDH   SFRSYM    DATA     BYTE      CAN_FMR3
      000000B7H   SFRSYM    DATA     BYTE      CAN_BTR0
      00000098H.2 SFRSYM    DATA     BIT       RB8
      0000008DH   SFRSYM    DATA     BYTE      IP3
      000000C2H   SFRSYM    DATA     BYTE      CAN_BTR1
      000000A8H.0 SFRSYM    DATA     BIT       EX0
      000000C3H   SFRSYM    DATA     BYTE      CAN_BTR2
      00000098H.3 SFRSYM    DATA     BIT       TB8
      000000A8H.2 SFRSYM    DATA     BIT       EX1
      000000D0H.0 SFRSYM    DATA     BIT       P
      000000BCH   SFRSYM    DATA     BYTE      LIN_ID
      000000D8H   SFRSYM    DATA     BYTE      UT2_CR
      00000089H   SFRSYM    DATA     BYTE      UT2_DR
      00000098H.5 SFRSYM    DATA     BIT       SM2
      000000D0H.3 SFRSYM    DATA     BIT       RS0
      000000D0H.4 SFRSYM    DATA     BIT       RS1
      000000B3H   SFRSYM    DATA     BYTE      CAN_SR
      000000B9H   SFRSYM    DATA     BYTE      LIN_CR
      000000C1H   SFRSYM    DATA     BYTE      MDU_CR
LX51 LINKER/LOCATER V4.66.87.0                                                        06/22/2026  16:51:37  PAGE 126


      000000F8H.7 SFRSYM    DATA     BIT       MOE
      000000BEH   SFRSYM    DATA     WORD      LIN_BAUD
      000000A8H.5 SFRSYM    DATA     BIT       MCDIE
      00000088H.6 SFRSYM    DATA     BIT       MCDIF
      00000098H.4 SFRSYM    DATA     BIT       REN
      000000D7H   SFRSYM    DATA     BYTE      CMP_SR
      000000BAH   SFRSYM    DATA     BYTE      LIN_SR
      000000D8H.6 SFRSYM    DATA     BIT       UT2MOD0
      000000D8H.7 SFRSYM    DATA     BIT       UT2MOD1
      000000D1H   SFRSYM    DATA     BYTE      P1_IE
      000000D2H   SFRSYM    DATA     BYTE      P1_IF
      000000D3H   SFRSYM    DATA     BYTE      P4_IE
      000000D4H   SFRSYM    DATA     BYTE      P4_IF
      000000ACH   SFRSYM    DATA     WORD      TIM2__DR
      000000FCH   SFRSYM    DATA     BYTE      P0_OE
      000000A4H   SFRSYM    DATA     WORD      TIM3__DR
      000000FDH   SFRSYM    DATA     BYTE      P1_OE
      00000094H   SFRSYM    DATA     WORD      TIM4__DR
      000000D0H.5 SFRSYM    DATA     BIT       F0
      000000FEH   SFRSYM    DATA     BYTE      P2_OE
      000000D0H.1 SFRSYM    DATA     BIT       F1
      000000FFH   SFRSYM    DATA     BYTE      P3_OE
      00000080H.0 SFRSYM    DATA     BIT       GP00
      000000D8H.0 SFRSYM    DATA     BIT       UT2RI
      000000E9H   SFRSYM    DATA     BYTE      P4_OE
      00000090H.0 SFRSYM    DATA     BIT       GP10
      00000080H.1 SFRSYM    DATA     BIT       GP01
      000000B1H   SFRSYM    DATA     BYTE      CAN_CR0
      000000A8H.6 SFRSYM    DATA     BIT       RTCIE
      000000A0H.0 SFRSYM    DATA     BIT       GP20
      00000090H.1 SFRSYM    DATA     BIT       GP11
      00000080H.2 SFRSYM    DATA     BIT       GP02
      000000B2H   SFRSYM    DATA     BYTE      CAN_CR1
      000000D8H.1 SFRSYM    DATA     BIT       UT2TI
      000000B0H.0 SFRSYM    DATA     BIT       GP30
      000000A0H.1 SFRSYM    DATA     BIT       GP21
      00000090H.2 SFRSYM    DATA     BIT       GP12
      00000080H.3 SFRSYM    DATA     BIT       GP03
      000000B5H   SFRSYM    DATA     BYTE      CAN_CR2
      000000A8H.1 SFRSYM    DATA     BIT       TSDIE
      000000D0H   SFRSYM    DATA     BYTE      PSW
      000000B0H.1 SFRSYM    DATA     BIT       GP31
      000000A0H.2 SFRSYM    DATA     BIT       GP22
      00000090H.3 SFRSYM    DATA     BIT       GP13
      00000080H.4 SFRSYM    DATA     BIT       GP04
      000000A8H.3 SFRSYM    DATA     BIT       SPIIE
      00000088H.5 SFRSYM    DATA     BIT       TSDIF
      000000B8H.1 SFRSYM    DATA     BIT       GP41
      000000B0H.2 SFRSYM    DATA     BIT       GP32
      000000A0H.3 SFRSYM    DATA     BIT       GP23
      00000090H.4 SFRSYM    DATA     BIT       GP14
      00000080H.5 SFRSYM    DATA     BIT       GP05
      000000B8H.2 SFRSYM    DATA     BIT       GP42
      000000B0H.3 SFRSYM    DATA     BIT       GP33
      000000A0H.4 SFRSYM    DATA     BIT       GP24
      00000090H.5 SFRSYM    DATA     BIT       GP15
      00000080H.6 SFRSYM    DATA     BIT       GP06
      00000088H.0 SFRSYM    DATA     BIT       IT00

      01001FA7H   BLOCK     CODE     ---       LVL=0
      ---         BLOCKEND  ---      ---       LVL=0

      010016B7H   BLOCK     CODE     ---       LVL=0
      010016B7H   BLOCK     CODE     NEAR LAB  LVL=1
      0200033FH   SYMBOL    XDATA    BYTE      IDE_FIL
LX51 LINKER/LOCATER V4.66.87.0                                                        06/22/2026  16:51:37  PAGE 127


      02000340H   SYMBOL    XDATA    WORD      BRP
      02000342H   SYMBOL    XDATA    BYTE      SEG2
      00000001H   SYMBOL    DATA     BYTE      SEG1
      02000343H   SYMBOL    XDATA    BYTE      CAN_IDE
      02000344H   SYMBOL    XDATA    BYTE      CAN_RTR
      00000005H   SYMBOL    DATA     BYTE      u8LocCanBTR0
      00000007H   SYMBOL    DATA     BYTE      u8LocCanBTR1
      00000004H   SYMBOL    DATA     BYTE      u8LocCanBTR2
      02000345H   SYMBOL    XDATA    DWORD     EXTID1
      02000349H   SYMBOL    XDATA    DWORD     EXTID2
      ---         BLOCKEND  ---      ---       LVL=1
      010016B7H   LINE      CODE     ---       #26
      010016B7H   LINE      CODE     ---       #27
      010016B7H   LINE      CODE     ---       #46
      010016BCH   LINE      CODE     ---       #47
      010016C0H   LINE      CODE     ---       #48
      010016C4H   LINE      CODE     ---       #52
      010016C7H   LINE      CODE     ---       #54
      010016CEH   LINE      CODE     ---       #56
      010016D0H   LINE      CODE     ---       #60
      010016D1H   LINE      CODE     ---       #61
      010016D1H   LINE      CODE     ---       #62
      010016D1H   LINE      CODE     ---       #63
      010016D3H   LINE      CODE     ---       #64
      010016D5H   LINE      CODE     ---       #65
      010016D7H   LINE      CODE     ---       #78
      010016DFH   LINE      CODE     ---       #79
      010016E2H   LINE      CODE     ---       #80
      010016E4H   LINE      CODE     ---       #82
      010016E9H   LINE      CODE     ---       #83
      010016ECH   LINE      CODE     ---       #84
      010016F4H   LINE      CODE     ---       #86
      010016F8H   LINE      CODE     ---       #87
      010016FAH   LINE      CODE     ---       #88
      010016FCH   LINE      CODE     ---       #90
      01001701H   LINE      CODE     ---       #92
      01001701H   LINE      CODE     ---       #93
      01001704H   LINE      CODE     ---       #95
      01001704H   LINE      CODE     ---       #96
      0100170EH   LINE      CODE     ---       #97
      01001714H   LINE      CODE     ---       #98
      01001716H   LINE      CODE     ---       #99
      01001721H   LINE      CODE     ---       #100
      01001777H   LINE      CODE     ---       #101
      01001781H   LINE      CODE     ---       #102
      0100178BH   LINE      CODE     ---       #103
      0100178EH   LINE      CODE     ---       #104
      01001791H   LINE      CODE     ---       #105
      01001794H   LINE      CODE     ---       #106
      01001797H   LINE      CODE     ---       #107
      01001797H   LINE      CODE     ---       #125
      01001797H   LINE      CODE     ---       #166
      0100179AH   LINE      CODE     ---       #168
      0100179DH   LINE      CODE     ---       #172
      010017A0H   LINE      CODE     ---       #173
      010017A3H   LINE      CODE     ---       #179
      010017A6H   LINE      CODE     ---       #183
      010017A9H   LINE      CODE     ---       #186
      010017ACH   LINE      CODE     ---       #187
      010017AFH   LINE      CODE     ---       #189
      010017B2H   LINE      CODE     ---       #190
      010017B4H   LINE      CODE     ---       #192
      010017B9H   LINE      CODE     ---       #194
      010017BCH   LINE      CODE     ---       #195
      ---         BLOCKEND  ---      ---       LVL=0
LX51 LINKER/LOCATER V4.66.87.0                                                        06/22/2026  16:51:37  PAGE 128



      01000913H   BLOCK     CODE     ---       LVL=0
      01000913H   BLOCK     CODE     NEAR LAB  LVL=1
      00000007H   SYMBOL    DATA     BYTE      rdptr
      02000334H   SYMBOL    XDATA    BYTE      u8LocValidFrmFlg
      ---         BLOCKEND  ---      ---       LVL=1
      01000913H   LINE      CODE     ---       #202
      01000913H   LINE      CODE     ---       #203
      01000913H   LINE      CODE     ---       #208
      01000918H   LINE      CODE     ---       #209
      0100091EH   LINE      CODE     ---       #211
      01000934H   LINE      CODE     ---       #212
      01000934H   LINE      CODE     ---       #214
      01000934H   LINE      CODE     ---       #215
      0100093AH   LINE      CODE     ---       #216
      01000940H   LINE      CODE     ---       #217
      01000943H   LINE      CODE     ---       #219
      01000948H   LINE      CODE     ---       #220
      01000948H   LINE      CODE     ---       #222
      0100094FH   LINE      CODE     ---       #224
      0100095CH   LINE      CODE     ---       #225
      0100096BH   LINE      CODE     ---       #226
      01000978H   LINE      CODE     ---       #227
      01000985H   LINE      CODE     ---       #228
      01000987H   LINE      CODE     ---       #230
      01000987H   LINE      CODE     ---       #232
      0100098EH   LINE      CODE     ---       #233
      01000994H   LINE      CODE     ---       #234
      010009A0H   LINE      CODE     ---       #235
      010009A0H   LINE      CODE     ---       #237
      010009A8H   LINE      CODE     ---       #238
      010009B0H   LINE      CODE     ---       #239
      010009B8H   LINE      CODE     ---       #240
      010009C0H   LINE      CODE     ---       #241
      010009C8H   LINE      CODE     ---       #242
      010009D0H   LINE      CODE     ---       #243
      010009D8H   LINE      CODE     ---       #244
      010009DBH   LINE      CODE     ---       #245
      010009DEH   LINE      CODE     ---       #247
      010009DEH   LINE      CODE     ---       #248
      010009E4H   LINE      CODE     ---       #249
      010009EAH   LINE      CODE     ---       #250
      010009EDH   LINE      CODE     ---       #252
      010009F2H   LINE      CODE     ---       #253
      010009F2H   LINE      CODE     ---       #254
      010009F9H   LINE      CODE     ---       #255
      01000A06H   LINE      CODE     ---       #256
      01000A15H   LINE      CODE     ---       #257
      01000A22H   LINE      CODE     ---       #258
      01000A2FH   LINE      CODE     ---       #259
      01000A31H   LINE      CODE     ---       #261
      01000A31H   LINE      CODE     ---       #262
      01000A38H   LINE      CODE     ---       #263
      01000A3EH   LINE      CODE     ---       #264
      01000A4AH   LINE      CODE     ---       #265
      01000A4AH   LINE      CODE     ---       #267
      01000A52H   LINE      CODE     ---       #268
      01000A5AH   LINE      CODE     ---       #269
      01000A62H   LINE      CODE     ---       #270
      01000A6AH   LINE      CODE     ---       #271
      01000A72H   LINE      CODE     ---       #272
      01000A7AH   LINE      CODE     ---       #273
      01000A82H   LINE      CODE     ---       #274
      01000A85H   LINE      CODE     ---       #275
      01000A88H   LINE      CODE     ---       #277
LX51 LINKER/LOCATER V4.66.87.0                                                        06/22/2026  16:51:37  PAGE 129


      01000A88H   LINE      CODE     ---       #278
      01000A8EH   LINE      CODE     ---       #279
      01000A94H   LINE      CODE     ---       #280
      01000A97H   LINE      CODE     ---       #282
      01000A9CH   LINE      CODE     ---       #283
      01000A9CH   LINE      CODE     ---       #284
      01000AA3H   LINE      CODE     ---       #285
      01000AB0H   LINE      CODE     ---       #286
      01000AC5H   LINE      CODE     ---       #287
      01000AD2H   LINE      CODE     ---       #288
      01000ADFH   LINE      CODE     ---       #289
      01000AE1H   LINE      CODE     ---       #291
      01000AE1H   LINE      CODE     ---       #292
      01000AE8H   LINE      CODE     ---       #293
      01000AEEH   LINE      CODE     ---       #294
      01000AFAH   LINE      CODE     ---       #295
      01000AFAH   LINE      CODE     ---       #297
      01000B02H   LINE      CODE     ---       #298
      01000B0AH   LINE      CODE     ---       #299
      01000B12H   LINE      CODE     ---       #300
      01000B1AH   LINE      CODE     ---       #301
      01000B22H   LINE      CODE     ---       #302
      01000B2AH   LINE      CODE     ---       #303
      01000B32H   LINE      CODE     ---       #304
      01000B3AH   LINE      CODE     ---       #305
      01000B3CH   LINE      CODE     ---       #307
      01000B3CH   LINE      CODE     ---       #308
      01000B41H   LINE      CODE     ---       #309
      01000B41H   LINE      CODE     ---       #310
      01000B41H   LINE      CODE     ---       #312
      01000B48H   LINE      CODE     ---       #313
      01000B48H   LINE      CODE     ---       #314
      01000B63H   LINE      CODE     ---       #315
      01000B63H   LINE      CODE     ---       #322
      ---         BLOCKEND  ---      ---       LVL=0

      01001996H   BLOCK     CODE     ---       LVL=0
      0200033FH   SYMBOL    XDATA    ---       pu8CanData
      02000342H   SYMBOL    XDATA    ---       pstrCanSendHead
      0100199CH   BLOCK     CODE     NEAR LAB  LVL=1
      00000006H   SYMBOL    DATA     WORD      u16WaitTimer
      ---         BLOCKEND  ---      ---       LVL=1
      01001996H   LINE      CODE     ---       #330
      0100199CH   LINE      CODE     ---       #331
      0100199CH   LINE      CODE     ---       #334
      0100199FH   LINE      CODE     ---       #335
      010019B4H   LINE      CODE     ---       #336
      010019B4H   LINE      CODE     ---       #337
      010019B9H   LINE      CODE     ---       #338
      010019BBH   LINE      CODE     ---       #340
      010019C8H   LINE      CODE     ---       #342
      010019CEH   LINE      CODE     ---       #343
      010019CEH   LINE      CODE     ---       #344
      010019D3H   LINE      CODE     ---       #345
      010019DEH   LINE      CODE     ---       #346
      010019E9H   LINE      CODE     ---       #347
      010019F6H   LINE      CODE     ---       #348
      010019F8H   LINE      CODE     ---       #350
      010019F8H   LINE      CODE     ---       #351
      010019FDH   LINE      CODE     ---       #352
      01001A0AH   LINE      CODE     ---       #353
      01001A0FH   LINE      CODE     ---       #354
      01001A13H   LINE      CODE     ---       #355
      01001A13H   LINE      CODE     ---       #357
      01001A20H   LINE      CODE     ---       #358
LX51 LINKER/LOCATER V4.66.87.0                                                        06/22/2026  16:51:37  PAGE 130


      01001A2AH   LINE      CODE     ---       #359
      01001A34H   LINE      CODE     ---       #360
      01001A3EH   LINE      CODE     ---       #361
      01001A48H   LINE      CODE     ---       #362
      01001A52H   LINE      CODE     ---       #363
      01001A5CH   LINE      CODE     ---       #364
      01001A66H   LINE      CODE     ---       #366
      01001A69H   LINE      CODE     ---       #367
      ---         BLOCKEND  ---      ---       LVL=0

      01002C8DH   BLOCK     CODE     ---       LVL=0
      00000007H   SYMBOL    DATA     BYTE      u8ErrorType
      01002C8DH   LINE      CODE     ---       #388
      01002C8DH   LINE      CODE     ---       #389
      01002C8DH   LINE      CODE     ---       #390
      01002C92H   LINE      CODE     ---       #391
      ---         BLOCKEND  ---      ---       LVL=0

      01002350H   BLOCK     CODE     ---       LVL=0
      01002350H   LINE      CODE     ---       #398
      01002350H   LINE      CODE     ---       #399
      01002350H   LINE      CODE     ---       #400
      01002361H   LINE      CODE     ---       #401
      01002361H   LINE      CODE     ---       #402
      01002361H   LINE      CODE     ---       #403
      01002361H   LINE      CODE     ---       #404
      01002367H   LINE      CODE     ---       #405
      01002367H   LINE      CODE     ---       #406
      01002368H   LINE      CODE     ---       #408
      01002368H   LINE      CODE     ---       #409
      01002368H   LINE      CODE     ---       #410
      01002374H   LINE      CODE     ---       #411
      01002374H   LINE      CODE     ---       #412
      01002374H   LINE      CODE     ---       #413
      01002376H   LINE      CODE     ---       #414
      0100237CH   LINE      CODE     ---       #415
      0100237CH   LINE      CODE     ---       #416
      0100237CH   LINE      CODE     ---       #417
      0100237EH   LINE      CODE     ---       #418
      01002385H   LINE      CODE     ---       #419
      01002385H   LINE      CODE     ---       #420
      0100238BH   LINE      CODE     ---       #421
      0100238CH   LINE      CODE     ---       #423
      0100238CH   LINE      CODE     ---       #424
      0100238CH   LINE      CODE     ---       #425
      0100238CH   LINE      CODE     ---       #427
      0100238CH   LINE      CODE     ---       #428
      0100238CH   LINE      CODE     ---       #430
      0100238FH   LINE      CODE     ---       #431
      01002396H   LINE      CODE     ---       #432
      0100239CH   LINE      CODE     ---       #433
      0100239CH   LINE      CODE     ---       #434
      0100239DH   LINE      CODE     ---       #436
      0100239DH   LINE      CODE     ---       #437
      0100239DH   LINE      CODE     ---       #438
      010023ACH   LINE      CODE     ---       #439
      010023ACH   LINE      CODE     ---       #440
      010023B3H   LINE      CODE     ---       #441
      010023B3H   LINE      CODE     ---       #443
      010023B3H   LINE      CODE     ---       #444
      010023BAH   LINE      CODE     ---       #445
      010023BCH   LINE      CODE     ---       #446
      010023BEH   LINE      CODE     ---       #447
      010023C2H   LINE      CODE     ---       #449
      010023C5H   LINE      CODE     ---       #450
LX51 LINKER/LOCATER V4.66.87.0                                                        06/22/2026  16:51:37  PAGE 131


      010023CAH   LINE      CODE     ---       #451
      010023CAH   LINE      CODE     ---       #452
      010023CAH   LINE      CODE     ---       #453
      010023CAH   LINE      CODE     ---       #455
      010023CAH   LINE      CODE     ---       #456
      010023CAH   LINE      CODE     ---       #457
      010023CAH   LINE      CODE     ---       #458
      010023CAH   LINE      CODE     ---       #460
      010023CAH   LINE      CODE     ---       #461
      010023CAH   LINE      CODE     ---       #462
      010023CAH   LINE      CODE     ---       #463
      ---         BLOCKEND  ---      ---       LVL=0

      ---         MODULE    ---      ---       CANIF
      020002EBH   PUBLIC    XDATA    WORD      CANIF_u16TxPeriodCnt
      020002E3H   PUBLIC    XDATA    ---       CAN_data_TX_3
      020002DBH   PUBLIC    XDATA    ---       CAN_data_TX_2
      020002D3H   PUBLIC    XDATA    ---       CAN_data_TX_1
      020002CBH   PUBLIC    XDATA    ---       CAN_data_RX_3
      020002C3H   PUBLIC    XDATA    ---       CAN_data_RX_2
      020002BBH   PUBLIC    XDATA    ---       CAN_data_RX_1
      020002B6H   PUBLIC    XDATA    ---       CANIF_strS31Mcu3Head
      020002B1H   PUBLIC    XDATA    ---       CANIF_strS31Mcu2Head
      020002ACH   PUBLIC    XDATA    ---       CANIF_strS31Mcu1Head
      020002A8H   PUBLIC    XDATA    ---       CANIF_strS31Pdcu3Head
      020002A4H   PUBLIC    XDATA    ---       CANIF_strS31Pdcu2Head
      020002A0H   PUBLIC    XDATA    ---       CANIF_strS31Pdcu1Head
      010020CCH   PUBLIC    CODE     ---       CANIF_vidComLostDiag
      01002671H   PUBLIC    CODE     ---       CANIF_vidTransProcess
      02000335H   PUBLIC    XDATA    BYTE      ?_CANIF_vidReceiveProcess?BYTE
      0100272CH   PUBLIC    CODE     ---       _CANIF_vidReceiveProcess
      010027C8H   PUBLIC    CODE     ---       CANIF_vidDataInit
      000000B8H.3 SFRSYM    DATA     BIT       GP43
      000000B0H.4 SFRSYM    DATA     BIT       GP34
      000000A0H.5 SFRSYM    DATA     BIT       GP25
      00000090H.6 SFRSYM    DATA     BIT       GP16
      00000080H.7 SFRSYM    DATA     BIT       GP07
      00000088H.1 SFRSYM    DATA     BIT       IT01
      00000088H.3 SFRSYM    DATA     BIT       IT10
      000000B8H.4 SFRSYM    DATA     BIT       GP44
      000000B0H.5 SFRSYM    DATA     BIT       GP35
      000000A0H.6 SFRSYM    DATA     BIT       GP26
      00000090H.7 SFRSYM    DATA     BIT       GP17
      00000080H   SFRSYM    DATA     BYTE      P0
      00000088H.4 SFRSYM    DATA     BIT       IT11
      000000C9H   SFRSYM    DATA     BYTE      RST_SR
      000000D9H   SFRSYM    DATA     BYTE      EVT_FILT
      000000B8H.5 SFRSYM    DATA     BIT       GP45
      000000B0H.6 SFRSYM    DATA     BIT       GP36
      000000A0H.7 SFRSYM    DATA     BIT       GP27
      00000090H   SFRSYM    DATA     BYTE      P1
      000000BDH   SFRSYM    DATA     BYTE      LIN_SIZE
      000000B8H.6 SFRSYM    DATA     BIT       GP46
      000000B0H.7 SFRSYM    DATA     BIT       GP37
      000000A0H   SFRSYM    DATA     BYTE      P2
      000000B0H   SFRSYM    DATA     BYTE      P3
      000000B8H   SFRSYM    DATA     BYTE      P4
      000000CEH   SFRSYM    DATA     BYTE      CAN_ALC
      000000D0H.6 SFRSYM    DATA     BIT       AC
      000000A8H.7 SFRSYM    DATA     BIT       EA
      000000D5H   SFRSYM    DATA     BYTE      CMP_CR0
      000000D6H   SFRSYM    DATA     BYTE      CMP_CR1
      000000DAH   SFRSYM    DATA     BYTE      CMP_CR2
      000000DCH   SFRSYM    DATA     BYTE      CMP_CR3
      000000F8H.0 SFRSYM    DATA     BIT       OISUH
LX51 LINKER/LOCATER V4.66.87.0                                                        06/22/2026  16:51:37  PAGE 132


      000000E1H   SFRSYM    DATA     BYTE      CMP_CR4
      000000F8H.2 SFRSYM    DATA     BIT       OISVH
      000000F8H.4 SFRSYM    DATA     BIT       OISWH
      000000F8H.1 SFRSYM    DATA     BIT       OISUL
      000000DFH   SFRSYM    DATA     BYTE      CAN_REC
      000000A8H   SFRSYM    DATA     BYTE      IE
      000000F8H.3 SFRSYM    DATA     BIT       OISVL
      000000F9H   SFRSYM    DATA     BYTE      PI_CR
      000000F8H.5 SFRSYM    DATA     BIT       OISWL
      000000DEH   SFRSYM    DATA     BYTE      CAN_TEC
      000000B4H   SFRSYM    DATA     BYTE      CAN_IER
      000000B6H   SFRSYM    DATA     BYTE      CAN_IFR
      000000AAH   SFRSYM    DATA     WORD      TIM2__CNTR
      000000DDH   SFRSYM    DATA     BYTE      CAN_LIM
      000000A2H   SFRSYM    DATA     WORD      TIM3__CNTR
      000000F1H   SFRSYM    DATA     BYTE      OSC_CFG
      000000E2H   SFRSYM    DATA     BYTE      HALL_CR
      00000092H   SFRSYM    DATA     WORD      TIM4__CNTR
      00000098H.0 SFRSYM    DATA     BIT       RI
      00000098H.6 SFRSYM    DATA     BIT       UT_MOD0
      00000098H.7 SFRSYM    DATA     BIT       UT_MOD1
      000000D0H.7 SFRSYM    DATA     BIT       CY
      00000098H.1 SFRSYM    DATA     BIT       TI
      00000084H   SFRSYM    DATA     BYTE      FLA_KEY
      000000CFH   SFRSYM    DATA     BYTE      CAN_ESR
      00000098H   SFRSYM    DATA     BYTE      UT_CR
      00000099H   SFRSYM    DATA     BYTE      UT_DR
      000000D0H.2 SFRSYM    DATA     BIT       OV
      0000009AH   SFRSYM    DATA     WORD      UT_BAUD
      000000D8H.2 SFRSYM    DATA     BIT       UT2RB8
      000000D8H.3 SFRSYM    DATA     BIT       UT2TB8
      000000BBH   SFRSYM    DATA     BYTE      LIN_CSR
      000000D8H.5 SFRSYM    DATA     BIT       UT2SM2
      00000087H   SFRSYM    DATA     BYTE      PCON
      00000088H   SFRSYM    DATA     BYTE      TCON
      00000082H   SFRSYM    DATA     WORD      DPTR
      00000088H.2 SFRSYM    DATA     BIT       IF0
      000000D8H.4 SFRSYM    DATA     BIT       UT2REN
      000000AEH   SFRSYM    DATA     WORD      TIM2__ARR
      000000A1H   SFRSYM    DATA     BYTE      TIM2_CR0
      000000A6H   SFRSYM    DATA     WORD      TIM3__ARR
      0000009CH   SFRSYM    DATA     BYTE      TIM3_CR0
      000000A9H   SFRSYM    DATA     BYTE      TIM2_CR1
      00000096H   SFRSYM    DATA     WORD      TIM4__ARR
      0000009EH   SFRSYM    DATA     BYTE      TIM4_CR0
      0000009DH   SFRSYM    DATA     BYTE      TIM3_CR1
      000000C4H   SFRSYM    DATA     BYTE      CAN_FIR0
      000000F8H   SFRSYM    DATA     BYTE      DRV_OUT
      0000009FH   SFRSYM    DATA     BYTE      TIM4_CR1
      000000C5H   SFRSYM    DATA     BYTE      CAN_FIR1
      000000C6H   SFRSYM    DATA     BYTE      CAN_FIR2
      000000E0H   SFRSYM    DATA     BYTE      ACC
      000000DBH   SFRSYM    DATA     BYTE      LVSR
      000000C7H   SFRSYM    DATA     BYTE      CAN_FIR3
      000000A8H.4 SFRSYM    DATA     BIT       ES0
      00000085H   SFRSYM    DATA     BYTE      FLA_CR
      000000CAH   SFRSYM    DATA     BYTE      CAN_FMR0
      0000008AH   SFRSYM    DATA     BYTE      IP0
      000000CBH   SFRSYM    DATA     BYTE      CAN_FMR1
      0000008BH   SFRSYM    DATA     BYTE      IP1
      000000CCH   SFRSYM    DATA     BYTE      CAN_FMR2
      0000008CH   SFRSYM    DATA     BYTE      IP2
      000000CDH   SFRSYM    DATA     BYTE      CAN_FMR3
      000000B7H   SFRSYM    DATA     BYTE      CAN_BTR0
      00000098H.2 SFRSYM    DATA     BIT       RB8
LX51 LINKER/LOCATER V4.66.87.0                                                        06/22/2026  16:51:37  PAGE 133


      0000008DH   SFRSYM    DATA     BYTE      IP3
      000000C2H   SFRSYM    DATA     BYTE      CAN_BTR1
      000000A8H.0 SFRSYM    DATA     BIT       EX0
      000000C3H   SFRSYM    DATA     BYTE      CAN_BTR2
      00000098H.3 SFRSYM    DATA     BIT       TB8
      000000A8H.2 SFRSYM    DATA     BIT       EX1
      000000D0H.0 SFRSYM    DATA     BIT       P
      000000BCH   SFRSYM    DATA     BYTE      LIN_ID
      000000D8H   SFRSYM    DATA     BYTE      UT2_CR
      00000089H   SFRSYM    DATA     BYTE      UT2_DR
      00000098H.5 SFRSYM    DATA     BIT       SM2
      000000D0H.3 SFRSYM    DATA     BIT       RS0
      000000D0H.4 SFRSYM    DATA     BIT       RS1
      000000B3H   SFRSYM    DATA     BYTE      CAN_SR
      000000B9H   SFRSYM    DATA     BYTE      LIN_CR
      000000C1H   SFRSYM    DATA     BYTE      MDU_CR
      000000F8H.7 SFRSYM    DATA     BIT       MOE
      000000BEH   SFRSYM    DATA     WORD      LIN_BAUD
      000000A8H.5 SFRSYM    DATA     BIT       MCDIE
      00000088H.6 SFRSYM    DATA     BIT       MCDIF
      00000098H.4 SFRSYM    DATA     BIT       REN
      000000D7H   SFRSYM    DATA     BYTE      CMP_SR
      000000BAH   SFRSYM    DATA     BYTE      LIN_SR
      000000D8H.6 SFRSYM    DATA     BIT       UT2MOD0
      000000D8H.7 SFRSYM    DATA     BIT       UT2MOD1
      000000D1H   SFRSYM    DATA     BYTE      P1_IE
      000000D2H   SFRSYM    DATA     BYTE      P1_IF
      000000D3H   SFRSYM    DATA     BYTE      P4_IE
      000000D4H   SFRSYM    DATA     BYTE      P4_IF
      000000ACH   SFRSYM    DATA     WORD      TIM2__DR
      000000FCH   SFRSYM    DATA     BYTE      P0_OE
      000000A4H   SFRSYM    DATA     WORD      TIM3__DR
      000000FDH   SFRSYM    DATA     BYTE      P1_OE
      00000094H   SFRSYM    DATA     WORD      TIM4__DR
      000000D0H.5 SFRSYM    DATA     BIT       F0
      000000FEH   SFRSYM    DATA     BYTE      P2_OE
      000000D0H.1 SFRSYM    DATA     BIT       F1
      000000FFH   SFRSYM    DATA     BYTE      P3_OE
      00000080H.0 SFRSYM    DATA     BIT       GP00
      000000D8H.0 SFRSYM    DATA     BIT       UT2RI
      000000E9H   SFRSYM    DATA     BYTE      P4_OE
      00000090H.0 SFRSYM    DATA     BIT       GP10
      00000080H.1 SFRSYM    DATA     BIT       GP01
      000000B1H   SFRSYM    DATA     BYTE      CAN_CR0
      000000A8H.6 SFRSYM    DATA     BIT       RTCIE
      000000A0H.0 SFRSYM    DATA     BIT       GP20
      00000090H.1 SFRSYM    DATA     BIT       GP11
      00000080H.2 SFRSYM    DATA     BIT       GP02
      000000B2H   SFRSYM    DATA     BYTE      CAN_CR1
      000000D8H.1 SFRSYM    DATA     BIT       UT2TI
      000000B0H.0 SFRSYM    DATA     BIT       GP30
      000000A0H.1 SFRSYM    DATA     BIT       GP21
      00000090H.2 SFRSYM    DATA     BIT       GP12
      00000080H.3 SFRSYM    DATA     BIT       GP03
      000000B5H   SFRSYM    DATA     BYTE      CAN_CR2
      000000A8H.1 SFRSYM    DATA     BIT       TSDIE
      000000D0H   SFRSYM    DATA     BYTE      PSW
      000000B0H.1 SFRSYM    DATA     BIT       GP31
      000000A0H.2 SFRSYM    DATA     BIT       GP22
      00000090H.3 SFRSYM    DATA     BIT       GP13
      00000080H.4 SFRSYM    DATA     BIT       GP04
      000000A8H.3 SFRSYM    DATA     BIT       SPIIE
      00000088H.5 SFRSYM    DATA     BIT       TSDIF
      000000B8H.1 SFRSYM    DATA     BIT       GP41
      000000B0H.2 SFRSYM    DATA     BIT       GP32
LX51 LINKER/LOCATER V4.66.87.0                                                        06/22/2026  16:51:37  PAGE 134


      000000A0H.3 SFRSYM    DATA     BIT       GP23
      00000090H.4 SFRSYM    DATA     BIT       GP14
      00000080H.5 SFRSYM    DATA     BIT       GP05
      000000B8H.2 SFRSYM    DATA     BIT       GP42
      000000B0H.3 SFRSYM    DATA     BIT       GP33
      000000A0H.4 SFRSYM    DATA     BIT       GP24
      00000090H.5 SFRSYM    DATA     BIT       GP15
      00000080H.6 SFRSYM    DATA     BIT       GP06
      00000088H.0 SFRSYM    DATA     BIT       IT00

      01002B9CH   BLOCK     CODE     ---       LVL=0
      ---         BLOCKEND  ---      ---       LVL=0

      010027C8H   BLOCK     CODE     ---       LVL=0
      010027C8H   LINE      CODE     ---       #63
      010027C8H   LINE      CODE     ---       #64
      010027C8H   LINE      CODE     ---       #65
      010027CFH   LINE      CODE     ---       #68
      010027D9H   LINE      CODE     ---       #69
      010027DFH   LINE      CODE     ---       #71
      010027E9H   LINE      CODE     ---       #72
      010027EFH   LINE      CODE     ---       #74
      010027F9H   LINE      CODE     ---       #75
      010027FFH   LINE      CODE     ---       #78
      01002803H   LINE      CODE     ---       #79
      01002803H   LINE      CODE     ---       #80
      01002806H   LINE      CODE     ---       #82
      01002806H   LINE      CODE     ---       #83
      01002806H   LINE      CODE     ---       #84
      01002809H   LINE      CODE     ---       #86
      01002809H   LINE      CODE     ---       #87
      01002809H   LINE      CODE     ---       #88
      0100280FH   LINE      CODE     ---       #89
      ---         BLOCKEND  ---      ---       LVL=0

      0100272CH   BLOCK     CODE     ---       LVL=0
      00000004H   SYMBOL    DATA     DWORD     u32CanId
      02000339H   SYMBOL    XDATA    BYTE      u8CanDlc
      0200033AH   SYMBOL    XDATA    ---       pu8CanData
      0100272CH   BLOCK     CODE     NEAR LAB  LVL=1
      0200033DH   SYMBOL    XDATA    BYTE      u8LocIdx
      ---         BLOCKEND  ---      ---       LVL=1
      0100272CH   LINE      CODE     ---       #102
      0100272CH   LINE      CODE     ---       #103
      0100272CH   LINE      CODE     ---       #107
      01002745H   LINE      CODE     ---       #108
      01002745H   LINE      CODE     ---       #109
      01002745H   LINE      CODE     ---       #110
      01002745H   LINE      CODE     ---       #111
      0100274FH   LINE      CODE     ---       #112
      01002755H   LINE      CODE     ---       #113
      01002760H   LINE      CODE     ---       #114
      01002760H   LINE      CODE     ---       #115
      01002760H   LINE      CODE     ---       #117
      01002760H   LINE      CODE     ---       #118
      01002760H   LINE      CODE     ---       #119
      0100276AH   LINE      CODE     ---       #120
      0100276DH   LINE      CODE     ---       #121
      0100276DH   LINE      CODE     ---       #122
      0100276FH   LINE      CODE     ---       #124
      0100276FH   LINE      CODE     ---       #125
      0100276FH   LINE      CODE     ---       #126
      01002779H   LINE      CODE     ---       #127
      0100277FH   LINE      CODE     ---       #128
      0100277FH   LINE      CODE     ---       #129
LX51 LINKER/LOCATER V4.66.87.0                                                        06/22/2026  16:51:37  PAGE 135


      0100277FH   LINE      CODE     ---       #145
      0100277FH   LINE      CODE     ---       #146
      0100277FH   LINE      CODE     ---       #147
      0100277FH   LINE      CODE     ---       #149
      ---         BLOCKEND  ---      ---       LVL=0

      01002671H   BLOCK     CODE     ---       LVL=0
      01002671H   LINE      CODE     ---       #162
      01002671H   LINE      CODE     ---       #163
      01002671H   LINE      CODE     ---       #164
      01002680H   LINE      CODE     ---       #165
      01002680H   LINE      CODE     ---       #166
      01002687H   LINE      CODE     ---       #167
      01002689H   LINE      CODE     ---       #169
      01002689H   LINE      CODE     ---       #170
      01002690H   LINE      CODE     ---       #171
      01002690H   LINE      CODE     ---       #173
      010026A8H   LINE      CODE     ---       #174
      010026A8H   LINE      CODE     ---       #175
      010026A8H   LINE      CODE     ---       #176
      010026B3H   LINE      CODE     ---       #177
      010026B5H   LINE      CODE     ---       #179
      010026B5H   LINE      CODE     ---       #180
      010026C0H   LINE      CODE     ---       #181
      010026C2H   LINE      CODE     ---       #183
      010026C2H   LINE      CODE     ---       #184
      010026D2H   LINE      CODE     ---       #185
      010026D2H   LINE      CODE     ---       #187
      010026D2H   LINE      CODE     ---       #189
      010026D2H   LINE      CODE     ---       #191
      010026D2H   LINE      CODE     ---       #193
      010026D2H   LINE      CODE     ---       #195
      010026D2H   LINE      CODE     ---       #196
      010026D2H   LINE      CODE     ---       #197
      010026D2H   LINE      CODE     ---       #199
      ---         BLOCKEND  ---      ---       LVL=0

      010020CCH   BLOCK     CODE     ---       LVL=0
      010020CCH   LINE      CODE     ---       #211
      010020CCH   LINE      CODE     ---       #212
      010020CCH   LINE      CODE     ---       #213
      010020D2H   LINE      CODE     ---       #214
      010020D2H   LINE      CODE     ---       #215
      010020D3H   LINE      CODE     ---       #216
      010020D3H   LINE      CODE     ---       #217
      010020D9H   LINE      CODE     ---       #218
      010020DBH   LINE      CODE     ---       #220
      010020DBH   LINE      CODE     ---       #221
      010020EAH   LINE      CODE     ---       #222
      010020EAH   LINE      CODE     ---       #223
      010020F1H   LINE      CODE     ---       #224
      010020F3H   LINE      CODE     ---       #226
      010020F3H   LINE      CODE     ---       #227
      010020F9H   LINE      CODE     ---       #228
      010020F9H   LINE      CODE     ---       #229
      010020F9H   LINE      CODE     ---       #231
      010020FFH   LINE      CODE     ---       #232
      010020FFH   LINE      CODE     ---       #233
      01002100H   LINE      CODE     ---       #234
      01002100H   LINE      CODE     ---       #235
      01002106H   LINE      CODE     ---       #236
      01002108H   LINE      CODE     ---       #238
      01002108H   LINE      CODE     ---       #239
      01002117H   LINE      CODE     ---       #240
      01002117H   LINE      CODE     ---       #241
LX51 LINKER/LOCATER V4.66.87.0                                                        06/22/2026  16:51:37  PAGE 136


      0100211EH   LINE      CODE     ---       #242
      01002120H   LINE      CODE     ---       #244
      01002120H   LINE      CODE     ---       #245
      01002126H   LINE      CODE     ---       #246
      01002126H   LINE      CODE     ---       #247
      01002126H   LINE      CODE     ---       #249
      0100212CH   LINE      CODE     ---       #250
      0100212CH   LINE      CODE     ---       #251
      0100212DH   LINE      CODE     ---       #252
      0100212DH   LINE      CODE     ---       #253
      01002133H   LINE      CODE     ---       #254
      01002134H   LINE      CODE     ---       #256
      01002134H   LINE      CODE     ---       #257
      01002143H   LINE      CODE     ---       #258
      01002143H   LINE      CODE     ---       #259
      0100214AH   LINE      CODE     ---       #260
      0100214AH   LINE      CODE     ---       #262
      0100214AH   LINE      CODE     ---       #263
      01002150H   LINE      CODE     ---       #264
      01002150H   LINE      CODE     ---       #265
      01002150H   LINE      CODE     ---       #267
      01002150H   LINE      CODE     ---       #270
      01002150H   LINE      CODE     ---       #271
      01002150H   LINE      CODE     ---       #272
      01002150H   LINE      CODE     ---       #279
      01002150H   LINE      CODE     ---       #280
      01002150H   LINE      CODE     ---       #281
      ---         BLOCKEND  ---      ---       LVL=0

      ---         MODULE    ---      ---       ?C?FPADD
      0100006DH   PUBLIC    CODE     ---       ?C?FPADD
      01000069H   PUBLIC    CODE     ---       ?C?FPSUB

      ---         MODULE    ---      ---       ?C?FPMUL
      0100015EH   PUBLIC    CODE     ---       ?C?FPMUL

      ---         MODULE    ---      ---       ?C?FPDIV
      01000267H   PUBLIC    CODE     ---       ?C?FPDIV

      ---         MODULE    ---      ---       ?C?FPCMP
      01000306H   PUBLIC    CODE     ---       ?C?FPCMP
      01000304H   PUBLIC    CODE     ---       ?C?FPCMP3

      ---         MODULE    ---      ---       ?C?FPNEG
      0100037DH   PUBLIC    CODE     ---       ?C?FPNEG

      ---         MODULE    ---      ---       ?C?FCAST
      01000398H   PUBLIC    CODE     ---       ?C?FCASTC
      01000393H   PUBLIC    CODE     ---       ?C?FCASTI
      0100038EH   PUBLIC    CODE     ---       ?C?FCASTL

      ---         MODULE    ---      ---       ?C?CASTF
      010003CCH   PUBLIC    CODE     ---       ?C?CASTF

      ---         MODULE    ---      ---       ?C?FPGETOPN
      01000403H   PUBLIC    CODE     ---       ?C?FPGETOPN2
      01000438H   PUBLIC    CODE     ---       ?C?FPNANRESULT
      01000442H   PUBLIC    CODE     ---       ?C?FPOVERFLOW
      0100041AH   PUBLIC    CODE     ---       ?C?FPRESULT
      0100042EH   PUBLIC    CODE     ---       ?C?FPRESULT2
      0100043FH   PUBLIC    CODE     ---       ?C?FPUNDERFLOW

      ---         MODULE    ---      ---       ?C_INIT
      01001E35H   PUBLIC    CODE     ---       ?C_START

LX51 LINKER/LOCATER V4.66.87.0                                                        06/22/2026  16:51:37  PAGE 137


      ---         MODULE    ---      ---       ?C?COPY
      0100051DH   PUBLIC    CODE     ---       ?C?COPY

      ---         MODULE    ---      ---       ?C?CLDPTR
      01000543H   PUBLIC    CODE     ---       ?C?CLDPTR

      ---         MODULE    ---      ---       ?C?CLDOPTR
      0100055CH   PUBLIC    CODE     ---       ?C?CLDOPTR

      ---         MODULE    ---      ---       ?C?CSTOPTR
      01000589H   PUBLIC    CODE     ---       ?C?CSTOPTR

      ---         MODULE    ---      ---       ?C?UIDIV
      010005ABH   PUBLIC    CODE     ---       ?C?UIDIV

      ---         MODULE    ---      ---       ?C?IILDX
      01000600H   PUBLIC    CODE     ---       ?C?IILDX

      ---         MODULE    ---      ---       ?C?ILDOPTR
      01000616H   PUBLIC    CODE     ---       ?C?ILDOPTR

      ---         MODULE    ---      ---       ?C?ISTOPTR
      0100064EH   PUBLIC    CODE     ---       ?C?ISTOPTR

      ---         MODULE    ---      ---       ?C?LADD
      0100067BH   PUBLIC    CODE     ---       ?C?LADD

      ---         MODULE    ---      ---       ?C?LSUB
      01000688H   PUBLIC    CODE     ---       ?C?LSUB

      ---         MODULE    ---      ---       ?C?LOR
      01000696H   PUBLIC    CODE     ---       ?C?LOR

      ---         MODULE    ---      ---       ?C?LNEG
      010006A3H   PUBLIC    CODE     ---       ?C?LNEG

      ---         MODULE    ---      ---       ?C?SLCMP
      010006B1H   PUBLIC    CODE     ---       ?C?SLCMP

      ---         MODULE    ---      ---       ?C?ULCMP
      010006C7H   PUBLIC    CODE     ---       ?C?ULCMP

      ---         MODULE    ---      ---       ?C?ULSHR
      010006D8H   PUBLIC    CODE     ---       ?C?ULSHR

      ---         MODULE    ---      ---       ?C?SLSHR
      010006EBH   PUBLIC    CODE     ---       ?C?SLSHR

      ---         MODULE    ---      ---       ?C?LSHL
      010006FFH   PUBLIC    CODE     ---       ?C?LSHL

      ---         MODULE    ---      ---       ?C?LLDPTR
      01000712H   PUBLIC    CODE     ---       ?C?LLDPTR

      ---         MODULE    ---      ---       ?C?LLDOPTR
      01000732H   PUBLIC    CODE     ---       ?C?LLDOPTR

      ---         MODULE    ---      ---       ?C?LSTOPTR
      01000762H   PUBLIC    CODE     ---       ?C?LSTOPTR

      ---         MODULE    ---      ---       ?C?LLDXDATA
      01000786H   PUBLIC    CODE     ---       ?C?LLDXDATA

      ---         MODULE    ---      ---       ?C?LLDXDATA0
      01000792H   PUBLIC    CODE     ---       ?C?LLDXDATA0
LX51 LINKER/LOCATER V4.66.87.0                                                        06/22/2026  16:51:37  PAGE 138



      ---         MODULE    ---      ---       ?C?LLDOPTR0
      0100079EH   PUBLIC    CODE     ---       ?C?LLDOPTR0

      ---         MODULE    ---      ---       ?C?LSTXDATA
      010007CEH   PUBLIC    CODE     ---       ?C?LSTXDATA

      ---         MODULE    ---      ---       ?C?LSTKXDATA
      010007DAH   PUBLIC    CODE     ---       ?C?LSTKXDATA

      ---         MODULE    ---      ---       ?C?PLDXDATA
      0100080BH   PUBLIC    CODE     ---       ?C?PLDXDATA

      ---         MODULE    ---      ---       ?C?PSTXDATA
      01000814H   PUBLIC    CODE     ---       ?C?PSTXDATA

      ---         MODULE    ---      ---       ?C?CCASE
      0100081DH   PUBLIC    CODE     ---       ?C?CCASE

      ---         MODULE    ---      ---       ?C?LCASE
      01000843H   PUBLIC    CODE     ---       ?C?LCASE

      ---         MODULE    ---      ---       ABS
      01000056H   PUBLIC    CODE     ---       _ABS

      ---         MODULE    ---      ---       ?C?MEMSET
      0100087DH   PUBLIC    CODE     ---       ?C?MEMSET

      ---         MODULE    ---      ---       ?C?LLDIDATA
      010008A9H   PUBLIC    CODE     ---       ?C?LLDIDATA

      ---         MODULE    ---      ---       ?C?LLDPDATA
      010008B5H   PUBLIC    CODE     ---       ?C?LLDPDATA

      ---         MODULE    ---      ---       ?C?LLDCODE
      010008C1H   PUBLIC    CODE     ---       ?C?LLDCODE

      ---         MODULE    ---      ---       ?C?LLDIDATA0
      010008D1H   PUBLIC    CODE     ---       ?C?LLDIDATA0

      ---         MODULE    ---      ---       ?C?LLDPDATA0
      010008DEH   PUBLIC    CODE     ---       ?C?LLDPDATA0

      ---         MODULE    ---      ---       ?C?LLDCODE0
      010008EBH   PUBLIC    CODE     ---       ?C?LLDCODE0

      ---         MODULE    ---      ---       ?C?LSTIDATA
      010008FBH   PUBLIC    CODE     ---       ?C?LSTIDATA

      ---         MODULE    ---      ---       ?C?LSTPDATA
      01000907H   PUBLIC    CODE     ---       ?C?LSTPDATA

Program Size: data=130.2 xdata=997 const=28 code=11644
LX51 RUN COMPLETE.  0 WARNING(S),  0 ERROR(S)
